(dp0
F0.5
(lp1
(I89
I77
F0.7361228466033936
tp2
a(I90
I77
F1.3646788597106934
tp3
a(I776
I714
F5.697213888168335
tp4
a(I362
I314
F2.5654640197753906
tp5
a(I1030
I716
F6.370870113372803
tp6
a(I804
I636
F4.877794981002808
tp7
a(I239
I208
F2.099771022796631
tp8
a(I545
I480
F3.675696849822998
tp9
a(I1012
I716
F5.676176071166992
tp10
a(I781
I715
F5.193182945251465
tp11
asI1
(lp12
(I46
I34
F0.7322430610656738
tp13
a(I47
I35
F1.0654211044311523
tp14
a(I276
I269
F2.894944906234741
tp15
a(I143
I136
F2.337045907974243
tp16
a(I284
I279
F2.61338210105896
tp17
a(I216
I209
F3.019890069961548
tp18
a(I85
I76
F1.9164488315582275
tp19
a(I216
I208
F2.4349050521850586
tp20
a(I283
I279
F3.045788049697876
tp21
a(I283
I279
F5.767688035964966
tp22
asF0.4
(lp23
(I805
I793
F3.2170660495758057
tp24
a(I101
I88
F1.2346210479736328
tp25
a(I1071
I1005
F7.308308124542236
tp26
a(I818
I772
F5.36307692527771
tp27
a(I1321
I1007
F8.858190059661865
tp28
a(I1212
I975
F7.449022054672241
tp29
a(I424
I386
F3.230973958969116
tp30
a(I781
I723
F5.103771924972534
tp31
a(I1303
I1007
F7.352685928344727
tp32
a(I1072
I1006
F7.0241310596466064
tp33
asF0.2
(lp34
(I3332
I3088
F12.713289022445679
tp35
a(I240
I228
F2.916584014892578
tp36
a(I3252
I3186
F18.740084886550903
tp37
a(I2678
I2548
F18.231881856918335
tp38
a(I3505
I3191
F20.546256065368652
tp39
a(I3480
I3209
F19.728902101516724
tp40
a(I2656
I2546
F21.04947805404663
tp41
a(I2107
I2039
F16.34101414680481
tp42
a(I3487
I3191
F19.43321394920349
tp43
a(I3257
I3191
F22.012392044067383
tp44
asF0.3
(lp45
(I1716
I1551
F6.196844100952148
tp46
a(I138
I126
F2.1900830268859863
tp47
a(I1663
I1597
F9.875334024429321
tp48
a(I1539
I1439
F9.703641176223755
tp49
a(I1914
I1600
F12.79087209701538
tp50
a(I1799
I1518
F9.866574048995972
tp51
a(I1009
I953
F8.473507165908813
tp52
a(I1212
I1145
F11.004539966583252
tp53
a(I1896
I1600
F9.838493824005127
tp54
a(I1666
I1600
F11.022832155227661
tp55
asF0.1
(lp56
(I11060
I10816
F61.2468318939209
tp57
a(I741
I728
F8.303683042526245
tp58
a(I11257
I11191
F77.79341411590576
tp59
a(I8360
I8251
F50.606568813323975
tp60
a(I11523
I11209
F72.60694313049316
tp61
a(I10399
I10101
F81.94668006896973
tp62
a(I9332
I9148
F1703.162267923355
tp63
a(I7690
I7632
F56.954185962677
tp64
a(I11505
I11209
F60.76701092720032
tp65
a(I11273
I11207
F81.20264482498169
tp66
as.