(dp0
F0.5
(lp1
(I616
I558
F3.643265962600708
tp2
a(I364
I326
F4.268203020095825
tp3
a(I648
I588
F6.443418979644775
tp4
a(I405
I362
F4.121952056884766
tp5
a(I962
I715
F13.378732204437256
tp6
a(I705
I673
F7.377446889877319
tp7
a(I866
I715
F9.583055973052979
tp8
a(I753
I714
F6.713979005813599
tp9
a(I392
I354
F3.624094009399414
tp10
a(I408
I363
F3.9623501300811768
tp11
asI1
(lp12
(I204
I198
F2.3665549755096436
tp13
a(I113
I108
F5.059678077697754
tp14
a(I240
I235
F6.357085943222046
tp15
a(I151
I146
F4.699064016342163
tp16
a(I271
I266
F4.61919093132019
tp17
a(I91
I85
F2.6974639892578125
tp18
a(I276
I272
F4.849517107009888
tp19
a(I135
I130
F4.6617279052734375
tp20
a(I125
I119
F3.833272933959961
tp21
a(I133
I127
F2.708574056625366
tp22
asF0.4
(lp23
(I781
I711
F4.1685051918029785
tp24
a(I690
I638
F6.323711156845093
tp25
a(I888
I830
F8.352214813232422
tp26
a(I548
I505
F4.763973951339722
tp27
a(I1277
I1006
F17.100889205932617
tp28
a(I1143
I921
F13.63446593284607
tp29
a(I1165
I1007
F12.49878191947937
tp30
a(I988
I853
F9.376469135284424
tp31
a(I879
I829
F8.038583040237427
tp32
a(I644
I589
F5.975899934768677
tp33
asF0.2
(lp34
(I2297
I2248
F20.188629865646362
tp35
a(I2837
I2718
F24.668437004089355
tp36
a(I2668
I2610
F24.23161792755127
tp37
a(I1638
I1595
F14.245763063430786
tp38
a(I3459
I3188
F38.803004026412964
tp39
a(I3303
I3066
F34.19880485534668
tp40
a(I3349
I3191
F37.31296896934509
tp41
a(I2955
I2844
F26.240889072418213
tp42
a(I2698
I2585
F26.843379020690918
tp43
a(I2099
I2019
F19.01729702949524
tp44
asF0.3
(lp45
(I1036
I976
F6.458534002304077
tp46
a(I1310
I1223
F10.048098087310791
tp47
a(I1372
I1314
F12.149992227554321
tp48
a(I834
I791
F8.449107885360718
tp49
a(I1869
I1598
F24.479534149169922
tp50
a(I1761
I1549
F18.58688497543335
tp51
a(I1758
I1600
F19.364086151123047
tp52
a(I1520
I1418
F13.380197048187256
tp53
a(I1431
I1318
F14.11576795578003
tp54
a(I1097
I1029
F10.5747230052948
tp55
asF0.1
(lp56
(I7342
I7280
F64.09197902679443
tp57
a(I9570
I9425
F83.60026288032532
tp58
a(I9179
I9121
F86.94307088851929
tp59
a(I5736
I5692
F53.68758201599121
tp60
a(I11469
I11198
F1733.766998052597
tp61
a(I11052
I10817
F108.0867669582367
tp62
a(I11365
I11207
F118.21246981620789
tp63
a(I9129
I9017
F76.41865086555481
tp64
a(I9573
I9462
F99.61969494819641
tp65
a(I9886
I9806
F93.7571439743042
tp66
as.