(dp0
F0.5
(lp1
(I8498
I707
F1.841817855834961
tp2
a(NNNtp3
ag3
a(I7673
I643
F1.4676399230957031
tp4
a(I8230
I681
F1.2879970073699951
tp5
ag3
ag3
a(I7875
I677
F1.2116279602050781
tp6
a(I7691
I660
F0.9320030212402344
tp7
a(I7596
I684
F0.9210529327392578
tp8
asI1
(lp9
(I15455
I278
F2.8787529468536377
tp10
ag3
ag3
a(I12171
I271
F1.5847668647766113
tp11
a(I13171
I258
F1.7166240215301514
tp12
ag3
ag3
a(I17945
I249
F2.3018128871917725
tp13
a(I13107
I225
F1.4260871410369873
tp14
a(I10514
I202
F1.2963581085205078
tp15
asF0.4
(lp16
(I11360
I996
F2.049578905105591
tp17
ag3
ag3
a(I10332
I913
F1.9241321086883545
tp18
a(I11080
I963
F1.9060652256011963
tp19
ag3
ag3
a(I10843
I967
F1.3614568710327148
tp20
a(I10752
I947
F1.2880349159240723
tp21
a(I10559
I966
F1.5325100421905518
tp22
asF0.2
(lp23
(I32932
I3152
F6.280226945877075
tp24
ag3
ag3
a(I29799
I2858
F4.889272928237915
tp25
a(I32300
I3085
F5.288973093032837
tp26
ag3
ag3
a(I32359
I3120
F4.747497081756592
tp27
a(I31875
I3065
F3.522500991821289
tp28
a(I31949
I3104
F4.3013410568237305
tp29
asF0.3
(lp30
(I17242
I1582
F3.2078359127044678
tp31
ag3
ag3
a(I16510
I1530
F2.7690000534057617
tp32
a(I16820
I1537
F2.7023470401763916
tp33
ag3
ag3
a(I16514
I1537
F2.158129930496216
tp34
a(I15998
I1470
F1.6317079067230225
tp35
a(I16458
I1556
F2.232177972793579
tp36
asF0.1
(lp37
(I112230
I11083
F21.05550789833069
tp38
ag3
ag3
a(I104056
I10289
F18.874732971191406
tp39
a(I110080
I10863
F16.3509840965271
tp40
ag3
ag3
a(I111558
I11042
F15.164275169372559
tp41
a(I110304
I10898
F12.531370162963867
tp42
a(I111564
I11066
F13.474233865737915
tp43
as.