(dp0
F0.5
(lp1
(I10000
I688
F1.7285900115966797
tp2
a(I7934
I666
F1.3697988986968994
tp3
a(I8934
I649
F1.1119561195373535
tp4
a(I10985
I658
F1.9728381633758545
tp5
a(I8210
I714
F1.1526520252227783
tp6
a(I8992
I650
F1.3104069232940674
tp7
a(I8578
I666
F1.4170279502868652
tp8
a(I11059
I642
F1.769759178161621
tp9
a(I8901
I673
F1.1418190002441406
tp10
a(I8620
I669
F1.540212869644165
tp11
asI1
(lp12
(I6953
I261
F1.27901291847229
tp13
a(I8006
I234
F1.2897429466247559
tp14
a(I3624
I250
F0.38951587677001953
tp15
a(I7250
I263
F1.3783190250396729
tp16
a(I18715
I230
F2.394737958908081
tp17
a(I10156
I247
F1.618185043334961
tp18
a(I4769
I245
F0.8371188640594482
tp19
a(I5214
I239
F0.8385341167449951
tp20
a(I3389
I254
F0.5059030055999756
tp21
a(I7763
I255
F0.907634973526001
tp22
asF0.4
(lp23
(I12880
I973
F1.8253161907196045
tp24
a(I10996
I932
F1.743060827255249
tp25
a(I11743
I918
F1.4465501308441162
tp26
a(I14774
I972
F2.5061230659484863
tp27
a(I11210
I1005
F1.695207118988037
tp28
a(I12040
I955
F1.825937032699585
tp29
a(I11361
I921
F1.7097949981689453
tp30
a(I14723
I903
F2.3485348224639893
tp31
a(I11746
I949
F1.4656901359558105
tp32
a(I11400
I949
F1.9456439018249512
tp33
asF0.2
(lp34
(I34210
I3108
F5.025330066680908
tp35
a(I32918
I3031
F5.84286904335022
tp36
a(I33153
I2960
F4.707081079483032
tp37
a(I40788
I2852
F7.031636953353882
tp38
a(I33021
I3185
F4.824717044830322
tp39
a(I35634
I3093
F5.0807600021362305
tp40
a(I33786
I3032
F4.57934308052063
tp41
a(I43929
I2935
F6.956841945648193
tp42
a(I33222
I3067
F4.250598192214966
tp43
a(I32510
I3059
F5.16731595993042
tp44
asF0.3
(lp45
(I18610
I1546
F2.7425811290740967
tp46
a(I16765
I1519
F2.7343528270721436
tp47
a(I17593
I1476
F2.4569709300994873
tp48
a(I22112
I1534
F3.994075059890747
tp49
a(I17147
I1597
F2.411965847015381
tp50
a(I18727
I1519
F2.949518918991089
tp51
a(I17498
I1491
F2.4077401161193848
tp52
a(I22287
I1429
F3.000770092010498
tp53
a(I17548
I1524
F2.4369618892669678
tp54
a(I17140
I1523
F2.352581024169922
tp55
asF0.1
(lp56
(I113420
I11029
F14.976952075958252
tp57
a(I113921
I11019
F17.947082042694092
tp58
a(I112322
I10535
F15.387901067733765
tp59
a(I143117
I10797
F25.998558044433594
tp60
a(I113027
I11185
F16.439833879470825
tp61
a(I122821
I10504
F16.652662992477417
tp62
a(I116087
I10870
F15.736547946929932
tp63
a(I154266
I10646
F20.69486093521118
tp64
a(I112313
I10851
F12.954287052154541
tp65
a(I110620
I10871
F15.5191490650177
tp66
as.