(lp0
(dp1
S'karakosta'
p2
(lp3
(I24572
I12285
F17.399630069732666
tp4
a(I25296
I12647
F53.50831985473633
tp5
a(I24416
I12207
F96.64939403533936
tp6
asS'vanilla'
p7
(lp8
(I33606
I764
F8.854586124420166
tp9
a(I56836
I778
F11.994597911834717
tp10
a(I67304
I562
F11.13904619216919
tp11
asS'two_approx_karakosta'
p12
(lp13
(I22238
I10801
F16.57180094718933
tp14
a(I25918
I12647
F51.66089391708374
tp15
a(I24030
I11699
F94.9170331954956
tp16
asS'two_approx'
p17
(lp18
(I65359
I12114
F15.272402048110962
tp19
a(I135162
I12579
F28.74204111099243
tp20
a(I190988
I11962
F35.66961407661438
tp21
asa(dp22
g2
(lp23
(I24388
I12193
F15.47846007347107
tp24
a(I19328
I9663
F38.84660315513611
tp25
a(I25332
I12665
F96.13996410369873
tp26
asg7
(lp27
(I29672
I590
F6.348049879074097
tp28
a(I68399
I666
F15.132091999053955
tp29
a(I38520
I327
F6.755293130874634
tp30
asg12
(lp31
(I24198
I11790
F18.22504496574402
tp32
a(I24176
I11828
F54.31196999549866
tp33
a(I25960
I12665
F106.76140093803406
tp34
asg17
(lp35
(I67882
I12097
F14.415951013565063
tp36
a(I121627
I9342
F23.744091033935547
tp37
a(I189802
I12595
F35.69392704963684
tp38
asa(dp39
g2
(lp40
(I24586
I12292
F17.170530080795288
tp41
a(I24862
I12430
F53.85719299316406
tp42
a(I25306
I12652
F104.7558798789978
tp43
asg7
(lp44
(I18603
I634
F3.2606420516967773
tp45
a(I37990
I371
F8.550731897354126
tp46
a(I56521
I415
F10.71797513961792
tp47
asg12
(lp48
(I25430
I12403
F17.015710830688477
tp49
a(I26004
I12688
F58.818751096725464
tp50
a(I25952
I12662
F104.96830606460571
tp51
asg17
(lp52
(I66516
I12189
F14.487308025360107
tp53
a(I123694
I12277
F25.63106679916382
tp54
a(I191076
I12652
F37.720617055892944
tp55
asa(dp56
g2
(lp57
(I24934
I12466
F21.82815384864807
tp58
a(I24320
I12159
F55.7317259311676
tp59
a(I25332
I12665
F113.68264412879944
tp60
asg7
(lp61
(I41110
I1402
F6.153004884719849
tp62
a(I79078
I895
F17.452775955200195
tp63
a(I12034
I62
F2.171204090118408
tp64
asg12
(lp65
(I23724
I11538
F21.660819053649902
tp66
a(I20636
I9981
F45.21566390991211
tp67
a(I25960
I12665
F113.89649891853333
tp68
asg17
(lp69
(I72462
I12262
F15.663932085037231
tp70
a(I143567
I11690
F33.25821089744568
tp71
a(I189031
I12581
F37.323883056640625
tp72
asa(dp73
g2
(lp74
(I25332
I12665
F19.299043893814087
tp75
a(I24758
I12378
F52.71385884284973
tp76
a(I24570
I12284
F94.04675006866455
tp77
asg7
(lp78
(I19520
I334
F3.498854875564575
tp79
a(I116421
I1257
F22.026900053024292
tp80
a(I37482
I245
F6.000513076782227
tp81
asg12
(lp82
(I25960
I12665
F18.337795972824097
tp83
a(I22020
I10668
F48.89754295349121
tp84
a(I24420
I11899
F90.6532130241394
tp85
asg17
(lp86
(I63578
I12617
F16.029217958450317
tp87
a(I185246
I11903
F36.17191410064697
tp88
a(I182818
I12126
F30.793251037597656
tp89
asa(dp90
g2
(lp91
(I25612
I12805
F21.386738061904907
tp92
a(I25112
I12555
F53.62381196022034
tp93
a(I25074
I12536
F118.04746699333191
tp94
asg7
(lp95
(I126103
I2868
F35.83597493171692
tp96
a(I53831
I648
F8.188661098480225
tp97
a(I141376
I1410
F28.069533109664917
tp98
asg12
(lp99
(I21426
I10349
F17.59137487411499
tp100
a(I24650
I12008
F53.82551193237305
tp101
a(I21780
I10553
F98.17813992500305
tp102
asg17
(lp103
(I156098
I12082
F43.69064497947693
tp104
a(I142704
I12406
F20.1273410320282
tp105
a(I245392
I11974
F50.323479890823364
tp106
asa(dp107
g2
(lp108
(I25442
I12720
F20.305565118789673
tp109
a(I25332
I12665
F49.96714806556702
tp110
a(I24118
I12058
F93.94976496696472
tp111
asg7
(lp112
(I50229
I828
F13.834725856781006
tp113
a(I25332
I308
F4.538100004196167
tp114
a(I87756
I658
F17.660375118255615
tp115
asg12
(lp116
(I25936
I12646
F20.5012309551239
tp117
a(I25960
I12665
F45.41699814796448
tp118
a(I25836
I12618
F97.55198788642883
tp119
asg17
(lp120
(I82781
I12666
F21.72544813156128
tp121
a(I126641
I12603
F23.86914896965027
tp122
a(I195396
I12058
F40.468640089035034
tp123
asa(dp124
g2
(lp125
(I23632
I11815
F19.988449811935425
tp126
a(I25014
I12506
F62.76587891578674
tp127
a(I25332
I12665
F85.90503096580505
tp128
asg7
(lp129
(I45139
I991
F9.750985145568848
tp130
a(I52582
I454
F9.911798000335693
tp131
a(I17106
I108
F2.9618871212005615
tp132
asg12
(lp133
(I24016
I11700
F17.348115921020508
tp134
a(I24832
I12107
F56.65179491043091
tp135
a(I25960
I12665
F93.89954710006714
tp136
asg17
(lp137
(I80871
I11640
F20.367130041122437
tp138
a(I124737
I12348
F28.46263599395752
tp139
a(I189148
I12583
F35.005271911621094
tp140
asa(dp141
g2
(lp142
(I25306
I12652
F20.61543893814087
tp143
a(I24998
I12498
F56.92168688774109
tp144
a(I25120
I12559
F101.75066804885864
tp145
asg7
(lp146
(I48394
I994
F12.518336057662964
tp147
a(I72504
I696
F13.262248039245605
tp148
a(I84386
I749
F15.995430946350098
tp149
asg12
(lp150
(I25944
I12658
F20.74532914161682
tp151
a(I23934
I11637
F54.89763307571411
tp152
a(I22118
I10729
F91.04831099510193
tp153
asg17
(lp154
(I74906
I12647
F20.127277851104736
tp155
a(I138778
I12186
F31.988429069519043
tp156
a(I203256
I12222
F35.80437994003296
tp157
asa(dp158
g2
(lp159
(I24894
I12446
F22.74631094932556
tp160
a(I24440
I12219
F57.35949897766113
tp161
a(I24910
I12454
F124.76495885848999
tp162
asg7
(lp163
(I103668
I2284
F27.206614017486572
tp164
a(I99802
I1726
F22.18807888031006
tp165
a(I67094
I481
F14.854434967041016
tp166
asg12
(lp167
(I23184
I11265
F20.33917498588562
tp168
a(I22094
I10719
F49.30680990219116
tp169
a(I23382
I11364
F128.85774612426758
tp170
asg17
(lp171
(I130981
I12101
F35.76426887512207
tp172
a(I165723
I11837
F35.63988709449768
tp173
a(I183396
I12127
F38.168079137802124
tp174
asa.