(dp0
S'karakosta'
p1
(lp2
sS'vanilla'
p3
(lp4
(I34579
I39
F1.3359870910644531
tp5
a(I46183
I29
F0.8766379356384277
tp6
a(I26523
I0
F0.36945295333862305
tp7
a(I16788
I6
F0.15652108192443848
tp8
a(I33125
I10
F0.5154540538787842
tp9
a(I26688
I3
F0.38146305084228516
tp10
a(I32452
I44
F0.518712043762207
tp11
a(I29690
I12
F0.37485194206237793
tp12
a(I61891
I0
F0.9740679264068604
tp13
a(I33298
I41
F0.5795080661773682
tp14
a(I29819
I5
F0.5088927745819092
tp15
a(I31525
I1
F0.4302530288696289
tp16
a(I18979
I16
F0.2754950523376465
tp17
a(I37493
I5
F0.5602312088012695
tp18
a(I27979
I1
F0.3934450149536133
tp19
a(I33428
I23
F0.5609390735626221
tp20
a(I28420
I8
F0.4387550354003906
tp21
a(I18035
I0
F0.23773193359375
tp22
a(I29204
I30
F0.6348299980163574
tp23
a(I24103
I4
F0.3826770782470703
tp24
a(I39917
I5
F0.6039741039276123
tp25
a(I18951
I9
F0.5410900115966797
tp26
a(I8567
I0
F0.09883689880371094
tp27
a(I24276
I0
F0.3050251007080078
tp28
a(I14678
I8
F0.2111821174621582
tp29
a(I30343
I3
F0.5882580280303955
tp30
a(I47049
I5
F0.955441951751709
tp31
a(I15716
I18
F0.19906306266784668
tp32
a(I26148
I9
F0.32735419273376465
tp33
a(I26743
I1
F0.44093918800354004
tp34
asS'two_approx_karakosta'
p35
(lp36
sS'two_approx'
p37
(lp38
s.