(lp0
(dp1
S'karakosta'
p2
(lp3
(I12065
I12064
F88.17217302322388
tp4
a(I25326
I12662
F49.091367959976196
tp5
a(I36123
I12040
F38.52323794364929
tp6
a(I126000
I12599
F42.787079095840454
tp7
asS'vanilla'
p8
(lp9
(I62321
I750
F14.09978699684143
tp10
a(I47463
I558
F10.646008014678955
tp11
a(I94956
I1336
F17.3972430229187
tp12
a(I116633
I1587
F33.589478969573975
tp13
asS'two_approx_karakosta'
p14
(lp15
(I12873
I12573
F92.56082487106323
tp16
a(I25234
I12297
F47.57888197898865
tp17
a(I38364
I12483
F41.294894218444824
tp18
a(I125860
I12272
F44.71618914604187
tp19
asS'two_approx'
p20
(lp21
(I131303
I12064
F27.043882131576538
tp22
a(I130386
I12531
F28.008872985839844
tp23
a(I163795
I11939
F34.076587200164795
tp24
a(I191913
I12597
F53.05838489532471
tp25
asa(dp26
g2
(lp27
(I12235
I12234
F88.17206501960754
tp28
a(I24792
I12395
F51.8814160823822
tp29
a(I36936
I12311
F40.26253390312195
tp30
a(I126660
I12665
F43.08524012565613
tp31
asg8
(lp32
(I46272
I455
F11.354521989822388
tp33
a(I53271
I645
F12.048188209533691
tp34
a(I97214
I1248
F26.04597783088684
tp35
a(I34096
I319
F8.437288999557495
tp36
asg14
(lp37
(I12398
I12091
F86.86633110046387
tp38
a(I23846
I11603
F53.33343291282654
tp39
a(I36102
I11715
F41.86195182800293
tp40
a(I129800
I12665
F41.24714279174805
tp41
asg20
(lp42
(I120146
I11905
F25.888719081878662
tp43
a(I126771
I12171
F25.73837399482727
tp44
a(I169295
I12109
F45.52716302871704
tp45
a(I127558
I12665
F35.75122308731079
tp46
asa(dp47
g2
(lp48
(I12663
I12662
F79.1536660194397
tp49
a(I25332
I12665
F62.196428060531616
tp50
a(I37578
I12525
F41.78840899467468
tp51
a(I126660
I12665
F40.44776701927185
tp52
asg8
(lp53
(I13090
I109
F2.110213041305542
tp54
a(I21131
I229
F4.872689962387085
tp55
a(I51917
I633
F11.733784914016724
tp56
a(I76655
I1106
F19.378048181533813
tp57
asg14
(lp58
(I12932
I12612
F77.84046196937561
tp59
a(I25960
I12665
F60.31854796409607
tp60
a(I38832
I12633
F40.36417293548584
tp61
a(I129800
I12665
F43.069790840148926
tp62
asg20
(lp63
(I125337
I12497
F21.85136389732361
tp64
a(I126309
I12589
F26.93509602546692
tp65
a(I136136
I12524
F34.4630229473114
tp66
a(I148493
I12665
F37.08629894256592
tp67
asa(dp68
g2
(lp69
(I12803
I12802
F96.26248812675476
tp70
a(I24628
I12313
F46.37714600563049
tp71
a(I36888
I12295
F40.57968616485596
tp72
a(I123870
I12386
F36.74437499046326
tp73
asg8
(lp74
(I117979
I1216
F24.213001012802124
tp75
a(I69457
I878
F9.290418863296509
tp76
a(I58016
I633
F18.074107885360718
tp77
a(I165472
I2190
F44.58622193336487
tp78
asg14
(lp79
(I10273
I9906
F74.3232970237732
tp80
a(I25826
I12602
F53.06743502616882
tp81
a(I37545
I12215
F41.10181999206543
tp82
a(I126970
I12397
F40.4814670085907
tp83
asg20
(lp84
(I183661
I12051
F40.9231379032135
tp85
a(I133330
I12157
F22.277913093566895
tp86
a(I130044
I12288
F37.31536412239075
tp87
a(I224404
I12384
F66.28101706504822
tp88
asa(dp89
g2
(lp90
(I12714
I12713
F87.87424683570862
tp91
a(I24834
I12416
F51.5061240196228
tp92
a(I37998
I12665
F42.64714002609253
tp93
a(I126660
I12665
F40.1004900932312
tp94
asg8
(lp95
(I35545
I560
F4.966437816619873
tp96
a(I74790
I911
F18.66767716407776
tp97
a(I21380
I201
F4.192247152328491
tp98
a(I28355
I344
F7.925626993179321
tp99
asg14
(lp100
(I12826
I12505
F84.81850695610046
tp101
a(I21580
I10454
F47.226881980895996
tp102
a(I38940
I12665
F39.04960107803345
tp103
a(I129800
I12665
F45.085641860961914
tp104
asg20
(lp105
(I133408
I12550
F24.055914163589478
tp106
a(I147761
I12032
F34.66732692718506
tp107
a(I126557
I12601
F31.12746787071228
tp108
a(I127367
I12665
F36.07839298248291
tp109
asa(dp110
g2
(lp111
(I12283
I12282
F72.67614507675171
tp112
a(I25304
I12651
F58.654053926467896
tp113
a(I36813
I12270
F39.8364098072052
tp114
a(I120640
I12063
F40.64885997772217
tp115
asg8
(lp116
(I57346
I664
F9.988065958023071
tp117
a(I51767
I670
F8.27983808517456
tp118
a(I59181
I526
F11.608435869216919
tp119
a(I111407
I1186
F29.165237188339233
tp120
asg14
(lp121
(I10728
I10398
F68.61143803596497
tp122
a(I25114
I12236
F52.49592089653015
tp123
a(I36414
I11826
F41.27740502357483
tp124
a(I124140
I12118
F39.79104995727539
tp125
asg20
(lp126
(I128086
I11874
F24.30502414703369
tp127
a(I128819
I12498
F28.749552965164185
tp128
a(I125071
I12143
F24.12085485458374
tp129
a(I175488
I12062
F47.0889630317688
tp130
asa(dp131
g2
(lp132
(I12819
I12818
F89.74384689331055
tp133
a(I24734
I12366
F52.63627314567566
tp134
a(I36789
I12262
F42.26048707962036
tp135
a(I125180
I12517
F41.80999493598938
tp136
asg8
(lp137
(I53021
I515
F10.236989974975586
tp138
a(I58867
I693
F14.08324408531189
tp139
a(I115996
I1067
F25.302870988845825
tp140
a(I127253
I1444
F32.16601896286011
tp141
asg14
(lp142
(I10985
I10641
F75.12453103065491
tp143
a(I23830
I11602
F51.63826513290405
tp144
a(I34017
I11028
F40.44582009315491
tp145
a(I123970
I12085
F41.833128929138184
tp146
asg20
(lp147
(I125212
I12405
F26.827741146087646
tp148
a(I139470
I12255
F33.55808091163635
tp149
a(I179907
I12056
F41.04056000709534
tp150
a(I202105
I12515
F54.574419021606445
tp151
asa(dp152
g2
(lp153
(I12160
I12159
F100.55435800552368
tp154
a(I24866
I12432
F61.208457946777344
tp155
a(I36903
I12300
F42.92907214164734
tp156
a(I125190
I12518
F40.44072890281677
tp157
asg8
(lp158
(I76043
I827
F16.045586109161377
tp159
a(I115647
I1273
F32.87633800506592
tp160
a(I139286
I1296
F40.699963092803955
tp161
a(I202763
I2280
F58.73901891708374
tp162
asg14
(lp163
(I11761
I11445
F102.43825316429138
tp164
a(I22670
I11000
F51.95974683761597
tp165
a(I37251
I12105
F44.68251299858093
tp166
a(I117100
I11405
F36.6628201007843
tp167
asg20
(lp168
(I149956
I11744
F33.351316928863525
tp169
a(I184034
I12033
F44.53970217704773
tp170
a(I198159
I12235
F56.09630298614502
tp171
a(I266516
I12518
F75.82989597320557
tp172
asa(dp173
g2
(lp174
(I12666
I12665
F78.11406397819519
tp175
a(I24386
I12192
F54.144591093063354
tp176
a(I36732
I12243
F42.66679406166077
tp177
a(I126590
I12658
F41.453733921051025
tp178
asg8
(lp179
(I8703
I69
F1.550934076309204
tp180
a(I29595
I308
F6.644982099533081
tp181
a(I73888
I705
F18.77144193649292
tp182
a(I52655
I738
F15.088718891143799
tp183
asg14
(lp184
(I12980
I12665
F85.88352680206299
tp185
a(I24592
I11987
F52.00525689125061
tp186
a(I37710
I12259
F43.27880787849426
tp187
a(I129720
I12658
F40.07316303253174
tp188
asg20
(lp189
(I126016
I12580
F23.664684057235718
tp190
a(I121360
I12066
F30.552380084991455
tp191
a(I141342
I12194
F33.71927785873413
tp192
a(I132542
I12657
F38.47140717506409
tp193
asa(dp194
g2
(lp195
(I12334
I12333
F73.96487402915955
tp196
a(I24890
I12444
F46.243196964263916
tp197
a(I37014
I12337
F34.444518089294434
tp198
a(I126580
I12657
F35.87882208824158
tp199
asg8
(lp200
(I67978
I620
F13.028146028518677
tp201
a(I85386
I932
F17.914369821548462
tp202
a(I119424
I1124
F22.15200901031494
tp203
a(I58477
I552
F12.367053031921387
tp204
asg14
(lp205
(I11920
I11588
F73.4597601890564
tp206
a(I23864
I11617
F43.45893597602844
tp207
a(I33477
I10826
F31.876592874526978
tp208
a(I129700
I12656
F34.95504689216614
tp209
asg20
(lp210
(I136056
I11922
F28.234174013137817
tp211
a(I150877
I12378
F32.34087300300598
tp212
a(I174797
I11961
F36.607187032699585
tp213
a(I135194
I12657
F31.64791512489319
tp214
asa.