(dp0
S'karakosta'
p1
(lp2
sS'vanilla'
p3
(lp4
(I33321
I6
F5.993074893951416
tp5
a(I109601
I13
F23.987579107284546
tp6
a(I66838
I9
F16.481843948364258
tp7
a(I46967
I1
F11.702954053878784
tp8
a(I46670
I3
F7.3466949462890625
tp9
a(I104945
I12
F22.809404850006104
tp10
a(I87776
I14
F15.733640193939209
tp11
a(I130263
I13
F29.541507959365845
tp12
a(I79386
I7
F11.122363090515137
tp13
a(I86872
I10
F19.463953018188477
tp14
a(I50121
I7
F13.715130090713501
tp15
a(I96014
I7
F24.936156034469604
tp16
a(I14647
I0
F2.0083298683166504
tp17
a(I56459
I11
F9.650323867797852
tp18
a(I32546
I2
F7.273336887359619
tp19
a(I138813
I28
F30.3262939453125
tp20
a(I23202
I0
F5.007297039031982
tp21
a(I120929
I15
F24.448934078216553
tp22
a(I145584
I34
F32.90402793884277
tp23
a(I118280
I19
F25.736299991607666
tp24
a(I70117
I6
F12.77839708328247
tp25
a(I45485
I3
F10.645349979400635
tp26
a(I53332
I12
F11.217227935791016
tp27
a(I74440
I3
F18.884811878204346
tp28
a(I21078
I0
F3.7010679244995117
tp29
a(I109132
I16
F24.925962924957275
tp30
a(I95343
I20
F17.193107843399048
tp31
a(I95239
I22
F21.791841983795166
tp32
a(I28247
I2
F4.848237991333008
tp33
a(I34327
I0
F6.853585958480835
tp34
a(I26991
I1
F6.077317953109741
tp35
a(I136138
I17
F29.406816005706787
tp36
a(I44450
I2
F5.286267042160034
tp37
a(I60147
I3
F14.633151054382324
tp38
a(I54681
I3
F12.84455418586731
tp39
a(I150259
I17
F37.33196711540222
tp40
a(I27576
I0
F3.478250026702881
tp41
a(I114534
I13
F17.8058500289917
tp42
a(I90891
I8
F14.802959203720093
tp43
a(I128530
I22
F24.06380295753479
tp44
asS'two_approx_karakosta'
p45
(lp46
sS'two_approx'
p47
(lp48
s.