(dp0
S'karakosta'
p1
(lp2
sS'vanilla'
p3
(lp4
(I27886
I0
F2.134477138519287
tp5
a(I14999
I0
F1.55265212059021
tp6
a(I13668
I0
F3.327169895172119
tp7
a(I8622
I0
F2.3891429901123047
tp8
a(I12808
I1
F0.8568539619445801
tp9
a(I13951
I0
F1.8850200176239014
tp10
a(I22474
I0
F5.180339813232422
tp11
a(I22019
I4
F7.820946216583252
tp12
a(I8281
I1
F0.5514390468597412
tp13
a(I13363
I0
F1.8826260566711426
tp14
a(I17976
I0
F3.6533830165863037
tp15
a(I21888
I2
F7.298558950424194
tp16
a(I9085
I0
F0.5784220695495605
tp17
a(I14334
I0
F2.237818956375122
tp18
a(I21909
I4
F5.631253004074097
tp19
a(I17593
I1
F5.744395971298218
tp20
a(I17804
I1
F1.1384410858154297
tp21
a(I12912
I0
F1.8958210945129395
tp22
a(I16575
I1
F4.416226148605347
tp23
a(I25213
I2
F8.042130947113037
tp24
a(I11035
I1
F0.7847859859466553
tp25
a(I8643
I0
F1.4111931324005127
tp26
a(I19562
I0
F3.757951021194458
tp27
a(I5473
I0
F1.6163179874420166
tp28
a(I13873
I1
F1.01198410987854
tp29
a(I20308
I4
F3.449765920639038
tp30
a(I24277
I0
F5.571696043014526
tp31
a(I17606
I0
F5.3316850662231445
tp32
a(I11435
I0
F0.8430111408233643
tp33
a(I14007
I0
F2.0373990535736084
tp34
a(I27056
I0
F6.102035999298096
tp35
a(I12988
I0
F3.8373072147369385
tp36
a(I7122
I0
F0.5418038368225098
tp37
a(I30702
I0
F4.668514966964722
tp38
a(I8681
I0
F1.6598081588745117
tp39
a(I10130
I0
F2.9482569694519043
tp40
a(I17866
I1
F1.1998291015625
tp41
a(I13402
I2
F2.111220121383667
tp42
a(I17826
I1
F4.807875156402588
tp43
a(I42101
I0
F11.900835990905762
tp44
asS'two_approx_karakosta'
p45
(lp46
sS'two_approx'
p47
(lp48
s.