(lp0
(dp1
S'karakosta'
p2
(lp3
(I21116
I10557
F34.20602202415466
tp4
a(I25074
I12536
F57.76585102081299
tp5
a(I26948
I13473
F62.48583698272705
tp6
a(I28248
I14123
F92.18092083930969
tp7
asS'vanilla'
p8
(lp9
(I78386
I1372
F9.316543102264404
tp10
a(I33706
I336
F7.227208137512207
tp11
a(I85108
I1025
F32.703683853149414
tp12
a(I29358
I254
F12.281257152557373
tp13
asS'two_approx_karakosta'
p14
(lp15
(I21344
I10404
F35.209895849227905
tp16
a(I24120
I11742
F56.19673800468445
tp17
a(I27602
I13473
F72.88894391059875
tp18
a(I28946
I14123
F83.95857787132263
tp19
asS'two_approx'
p20
(lp21
(I140742
I10494
F18.068290948867798
tp22
a(I124605
I12387
F28.79743003845215
tp23
a(I160552
I13450
F68.05221891403198
tp24
a(I141095
I14039
F73.6449658870697
tp25
asa(dp26
g2
(lp27
(I22010
I11004
F33.461535930633545
tp28
a(I25040
I12519
F51.61310601234436
tp29
a(I25430
I12714
F65.53023409843445
tp30
a(I27334
I13666
F88.026939868927
tp31
asg8
(lp32
(I73282
I846
F7.718775033950806
tp33
a(I99326
I1006
F23.638355016708374
tp34
a(I66966
I817
F27.04595708847046
tp35
a(I71928
I791
F36.93029522895813
tp36
asg14
(lp37
(I19782
I9606
F26.036476850509644
tp38
a(I23100
I11219
F45.29873204231262
tp39
a(I25284
I12312
F67.51196503639221
tp40
a(I24750
I12018
F74.35925102233887
tp41
asg20
(lp42
(I128187
I10813
F12.805037021636963
tp43
a(I172281
I12221
F39.24106979370117
tp44
a(I148383
I12481
F55.691620111465454
tp45
a(I164157
I13355
F78.78753399848938
tp46
asa(dp47
g2
(lp48
(I22188
I11093
F31.965823888778687
tp49
a(I25070
I12534
F54.22618293762207
tp50
a(I26302
I13150
F68.39579701423645
tp51
a(I28158
I14078
F86.9390299320221
tp52
asg8
(lp53
(I39532
I449
F2.954935073852539
tp54
a(I96305
I1083
F20.419376850128174
tp55
a(I98157
I1022
F29.600727081298828
tp56
a(I23569
I205
F10.730998039245605
tp57
asg14
(lp58
(I21194
I10316
F31.770323038101196
tp59
a(I21764
I10545
F50.0027859210968
tp60
a(I23586
I11438
F66.10963606834412
tp61
a(I26794
I13042
F85.64542007446289
tp62
asg20
(lp63
(I110658
I10967
F10.088474035263062
tp64
a(I154888
I12138
F34.58515906333923
tp65
a(I169831
I12724
F56.345864057540894
tp66
a(I139724
I13906
F65.34437799453735
tp67
asa(dp68
g2
(lp69
(I21672
I10835
F37.5129919052124
tp70
a(I25332
I12665
F51.79747009277344
tp71
a(I27038
I13518
F62.8032808303833
tp72
a(I28244
I14121
F91.68390393257141
tp73
asg8
(lp74
(I56491
I678
F5.247988939285278
tp75
a(I13766
I156
F2.001904010772705
tp76
a(I17743
I192
F5.344407081604004
tp77
a(I78696
I735
F49.967483043670654
tp78
asg14
(lp79
(I22504
I10971
F38.56725478172302
tp80
a(I25960
I12665
F49.99232602119446
tp81
a(I27706
I13518
F61.23794102668762
tp82
a(I28946
I14123
F95.45140194892883
tp83
asg20
(lp84
(I119120
I10639
F12.622117042541504
tp85
a(I126185
I12586
F27.354565858840942
tp86
a(I134886
I13445
F50.435975074768066
tp87
a(I157553
I14121
F102.2816870212555
tp88
asa(dp89
g2
(lp90
(I22418
I11208
F35.04148507118225
tp91
a(I24268
I12133
F55.7017080783844
tp92
a(I26860
I13429
F80.45617818832397
tp93
a(I26622
I13310
F79.63598394393921
tp94
asg8
(lp95
(I24316
I230
F2.528254985809326
tp96
a(I114337
I1770
F28.935467004776
tp97
a(I138133
I1279
F52.10678577423096
tp98
a(I38388
I344
F16.149566173553467
tp99
asg14
(lp100
(I22976
I11208
F38.85678005218506
tp101
a(I25692
I12548
F59.627066135406494
tp102
a(I24014
I11636
F70.79761099815369
tp103
a(I28494
I13910
F83.91142511367798
tp104
asg20
(lp105
(I111972
I11146
F11.80650281906128
tp106
a(I177535
I12105
F45.10267615318298
tp107
a(I209394
I12915
F83.50071716308594
tp108
a(I132527
I13161
F63.98415684700012
tp109
asa(dp110
g2
(lp111
(I22418
I11208
F31.384496927261353
tp112
a(I25132
I12565
F59.34968709945679
tp113
a(I26848
I13423
F75.20387196540833
tp114
a(I28246
I14122
F89.86598896980286
tp115
asg8
(lp116
(I23421
I294
F1.998072862625122
tp117
a(I143493
I1583
F39.735750913619995
tp118
a(I74426
I697
F29.672342777252197
tp119
a(I61034
I418
F38.23495292663574
tp120
asg14
(lp121
(I22976
I11208
F30.101423978805542
tp122
a(I19594
I9432
F47.90306305885315
tp123
a(I26090
I12705
F73.41490316390991
tp124
a(I28946
I14123
F98.4935519695282
tp125
asg20
(lp126
(I112004
I11139
F9.076375007629395
tp127
a(I203615
I11824
F54.654552936553955
tp128
a(I155402
I13281
F60.22356700897217
tp129
a(I142566
I14122
F92.63635897636414
tp130
asa(dp131
g2
(lp132
(I21818
I10908
F43.58405303955078
tp133
a(I24716
I12357
F57.89089298248291
tp134
a(I26702
I13350
F71.31282901763916
tp135
a(I28246
I14122
F84.71709394454956
tp136
asg8
(lp137
(I86524
I1223
F9.226549863815308
tp138
a(I70322
I601
F18.40720796585083
tp139
a(I82120
I842
F30.61573100090027
tp140
a(I25385
I214
F11.538960933685303
tp141
asg14
(lp142
(I18226
I8821
F35.74739384651184
tp143
a(I23312
I11331
F53.76298713684082
tp144
a(I25018
I12155
F65.41099405288696
tp145
a(I28944
I14122
F88.95313811302185
tp146
asg20
(lp147
(I141208
I10572
F16.71594500541687
tp148
a(I148341
I12047
F40.108726024627686
tp149
a(I168626
I13059
F60.15080904960632
tp150
a(I140997
I14046
F65.87394595146179
tp151
asa(dp152
g2
(lp153
(I22418
I11208
F27.018115043640137
tp154
a(I25332
I12665
F49.95762491226196
tp155
a(I26506
I13252
F73.14980411529541
tp156
a(I27638
I13818
F86.33959794044495
tp157
asg8
(lp158
(I7572
I66
F0.4655799865722656
tp159
a(I27113
I298
F7.217926025390625
tp160
a(I81535
I1215
F30.45292901992798
tp161
a(I75542
I787
F42.07213091850281
tp162
asg14
(lp163
(I22976
I11208
F29.385295152664185
tp164
a(I25960
I12665
F50.48006582260132
tp165
a(I25584
I12449
F71.44581699371338
tp166
a(I26668
I12985
F79.9645459651947
tp167
asg20
(lp168
(I111623
I11139
F8.539093971252441
tp169
a(I126692
I12607
F34.08941197395325
tp170
a(I155435
I13019
F59.32129693031311
tp171
a(I163592
I13654
F91.72466897964478
tp172
asa(dp173
g2
(lp174
(I21376
I10687
F25.501864910125732
tp175
a(I24292
I12145
F45.588062047958374
tp176
a(I26834
I13416
F61.76969003677368
tp177
a(I27880
I13939
F65.21372199058533
tp178
asg8
(lp179
(I51405
I522
F3.0613420009613037
tp180
a(I70146
I616
F16.756151914596558
tp181
a(I62319
I778
F21.552006006240845
tp182
a(I140461
I1442
F60.25004601478577
tp183
asg14
(lp184
(I20708
I10072
F27.277162075042725
tp185
a(I25446
I12426
F46.158793926239014
tp186
a(I27106
I13206
F63.870627880096436
tp187
a(I22294
I10767
F51.62609004974365
tp188
asg20
(lp189
(I114082
I10420
F9.027997970581055
tp190
a(I132642
I12145
F33.54567098617554
tp191
a(I139019
I13178
F39.10453200340271
tp192
a(I213477
I13392
F88.90596604347229
tp193
asa(dp194
g2
(lp195
(I22304
I11151
F24.751157999038696
tp196
a(I24528
I12263
F39.75717878341675
tp197
a(I26520
I13259
F47.84912300109863
tp198
a(I28158
I14078
F52.655625104904175
tp199
asg8
(lp200
(I69131
I607
F4.414670944213867
tp201
a(I83134
I795
F13.058349847793579
tp202
a(I113352
I2098
F25.397813081741333
tp203
a(I62622
I794
F16.929491996765137
tp204
asg14
(lp205
(I22718
I11060
F24.542257070541382
tp206
a(I21662
I10507
F36.03475904464722
tp207
a(I25314
I12305
F45.57909917831421
tp208
a(I26004
I12631
F50.11834692955017
tp209
asg20
(lp210
(I139488
I10808
F9.227529048919678
tp211
a(I150101
I11951
F23.39539408683777
tp212
a(I184331
I12971
F40.39126205444336
tp213
a(I157007
I13765
F45.93382692337036
tp214
asa.