(dp0
S'karakosta'
p1
(lp2
sS'vanilla'
p3
(lp4
(I535
I6
F0.2201061248779297
tp5
a(I1245
I15
F0.17020392417907715
tp6
a(I1712
I21
F0.11148309707641602
tp7
a(I2745
I34
F0.08856701850891113
tp8
a(I5442
I68
F0.1853041648864746
tp9
a(I19200
I240
F0.3801090717315674
tp10
a(I72008
I897
F0.953516960144043
tp11
a(I1141
I13
F0.016237974166870117
tp12
a(I2937
I35
F0.041702985763549805
tp13
a(I4164
I50
F0.05626487731933594
tp14
a(I6626
I80
F0.08495712280273438
tp15
a(I13221
I161
F0.167572021484375
tp16
a(I46530
I568
F0.5566558837890625
tp17
a(I174585
I2124
F2.058856964111328
tp18
a(I1273
I21
F0.015614986419677734
tp19
a(I3354
I57
F0.04410505294799805
tp20
a(I4745
I81
F0.05943107604980469
tp21
a(I7578
I130
F0.09085798263549805
tp22
a(I15293
I263
F0.17589902877807617
tp23
a(I54225
I934
F0.6329870223999023
tp24
a(I205223
I3507
F2.2905359268188477
tp25
a(I395
I4
F0.010523080825805664
tp26
a(I958
I11
F0.020467042922973633
tp27
a(I1353
I16
F0.024746179580688477
tp28
a(I2084
I25
F0.028873920440673828
tp29
a(I4155
I50
F0.06306219100952148
tp30
a(I14879
I177
F0.17835021018981934
tp31
a(I55760
I658
F0.6673028469085693
tp32
a(I862
I12
F0.012130975723266602
tp33
a(I2253
I33
F0.03311300277709961
tp34
a(I3117
I46
F0.044367074966430664
tp35
a(I4927
I73
F0.06713414192199707
tp36
a(I9877
I147
F0.12369513511657715
tp37
a(I34793
I515
F0.4127979278564453
tp38
a(I131029
I1924
F1.5206031799316406
tp39
a(I1015
I18
F0.013200998306274414
tp40
a(I2746
I50
F0.0370941162109375
tp41
a(I3898
I71
F0.05019807815551758
tp42
a(I6243
I114
F0.07624602317810059
tp43
a(I12560
I230
F0.16231393814086914
tp44
a(I44809
I818
F0.4951820373535156
tp45
a(I168864
I3074
F1.8675248622894287
tp46
a(I674
I10
F0.01100611686706543
tp47
a(I1743
I27
F0.027472972869873047
tp48
a(I2484
I39
F0.0411219596862793
tp49
a(I3862
I61
F0.060501813888549805
tp50
a(I7733
I123
F0.11060810089111328
tp51
a(I27290
I433
F0.35793399810791016
tp52
a(I102786
I1619
F1.2661690711975098
tp53
a(I892
I14
F0.012096881866455078
tp54
a(I2393
I39
F0.03325295448303223
tp55
a(I3354
I55
F0.044560909271240234
tp56
a(I5337
I88
F0.07216095924377441
tp57
a(I10610
I176
F0.13628005981445312
tp58
a(I37555
I625
F0.4511129856109619
tp59
a(I140023
I2341
F1.6808907985687256
tp60
a(I618
I10
F0.007627010345458984
tp61
a(I1575
I27
F0.017880916595458984
tp62
a(I2200
I38
F0.029736995697021484
tp63
a(I3505
I61
F0.043305158615112305
tp64
a(I6955
I122
F0.0829169750213623
tp65
a(I24451
I430
F0.27467799186706543
tp66
a(I91169
I1603
F1.0184528827667236
tp67
a(I712
I10
F0.023873090744018555
tp68
a(I1883
I28
F0.031228065490722656
tp69
a(I2658
I40
F0.04326915740966797
tp70
a(I4225
I64
F0.050279855728149414
tp71
a(I8411
I128
F0.0932610034942627
tp72
a(I29600
I451
F0.29886412620544434
tp73
a(I110601
I1686
F1.0791261196136475
tp74
asS'two_approx_karakosta'
p75
(lp76
sS'two_approx'
p77
(lp78
s.