(lp0
(dp1
S'karakosta'
p2
(lp3
(I628
I313
F1.3634238243103027
tp4
a(I1612
I805
F3.87070894241333
tp5
a(I2270
I1134
F5.001780033111572
tp6
a(I3610
I1804
F9.09970498085022
tp7
a(I7204
I3601
F14.964881896972656
tp8
a(I25322
I12660
F53.88817620277405
tp9
a(I94552
I47275
F218.53573489189148
tp10
asS'vanilla'
p11
(lp12
(I1024
I12
F0.8496928215026855
tp13
a(I8070
I806
F2.697566032409668
tp14
a(I11350
I1134
F3.9822330474853516
tp15
a(I18050
I1804
F4.832036972045898
tp16
a(I36040
I3603
F9.609123945236206
tp17
a(I126650
I12664
F34.08924102783203
tp18
a(I472910
I47290
F101.55387210845947
tp19
asS'two_approx_karakosta'
p20
(lp21
(I1256
I313
F2.0157978534698486
tp22
a(I2242
I806
F4.324692964553833
tp23
a(I2898
I1134
F5.908854007720947
tp24
a(I4238
I1804
F9.541329860687256
tp25
a(I7836
I3603
F16.916590213775635
tp26
a(I25958
I12664
F60.03804898262024
tp27
a(I95210
I47290
F219.86569094657898
tp28
asS'two_approx'
p29
(lp30
(I4164
I313
F1.52341890335083
tp31
a(I11200
I805
F2.868562936782837
tp32
a(I14490
I1134
F5.5408220291137695
tp33
a(I21190
I1804
F5.80801796913147
tp34
a(I39160
I3601
F10.529966115951538
tp35
a(I129750
I12660
F34.86861515045166
tp36
a(I475900
I47275
F109.63504791259766
tp37
asa(dp38
g2
(lp39
(I624
I311
F1.5069210529327393
tp40
a(I1606
I802
F3.1068530082702637
tp41
a(I2260
I1129
F4.56685996055603
tp42
a(I3592
I1795
F7.6318199634552
tp43
a(I7172
I3585
F17.734408855438232
tp44
a(I25208
I12603
F58.08675789833069
tp45
a(I94096
I47047
F221.0918951034546
tp46
asg11
(lp47
(I1176
I13
F0.2638721466064453
tp48
a(I8319
I805
F2.913083076477051
tp49
a(I11735
I1134
F3.245556116104126
tp50
a(I18893
I1803
F5.10375189781189
tp51
a(I38159
I3601
F8.7864511013031
tp52
a(I136542
I12655
F35.183274030685425
tp53
a(I514506
I47252
F124.98637986183167
tp54
asg20
(lp55
(I1250
I312
F2.544480800628662
tp56
a(I2236
I805
F4.247224807739258
tp57
a(I2894
I1134
F6.424321889877319
tp58
a(I4232
I1803
F8.925620794296265
tp59
a(I7826
I3600
F16.652108907699585
tp60
a(I25934
I12654
F60.38020706176758
tp61
a(I95152
I47263
F215.1530361175537
tp62
asg29
(lp63
(I4381
I311
F1.2316441535949707
tp64
a(I11499
I801
F2.5055861473083496
tp65
a(I14924
I1129
F4.587388038635254
tp66
a(I22039
I1795
F6.325979948043823
tp67
a(I41230
I3584
F9.679749011993408
tp68
a(I139175
I12603
F32.78401708602905
tp69
a(I515392
I47046
F129.02907395362854
tp70
asa(dp71
g2
(lp72
(I648
I323
F1.2232658863067627
tp73
a(I1634
I816
F3.341822862625122
tp74
a(I2294
I1146
F4.721379041671753
tp75
a(I3604
I1801
F5.926613092422485
tp76
a(I7162
I3580
F13.76777696609497
tp77
a(I25322
I12660
F49.38148593902588
tp78
a(I94020
I47009
F188.6827690601349
tp79
asg11
(lp80
(I982
I9
F0.22686004638671875
tp81
a(I6930
I692
F1.6179931163787842
tp82
a(I10410
I1040
F2.484200954437256
tp83
a(I16660
I1665
F3.8492610454559326
tp84
a(I30730
I3072
F6.158488035202026
tp85
a(I115350
I11534
F23.94265389442444
tp86
a(I444120
I44411
F86.37134003639221
tp87
asg20
(lp88
(I1240
I295
F2.364933967590332
tp89
a(I2226
I789
F4.265188932418823
tp90
a(I2860
I1106
F5.338967800140381
tp91
a(I3870
I1613
F7.682868003845215
tp92
a(I7404
I3379
F15.704016923904419
tp93
a(I24814
I12080
F50.945218086242676
tp94
a(I90636
I44991
F170.27362298965454
tp95
asg29
(lp96
(I3912
I292
F0.819694995880127
tp97
a(I10290
I763
F2.5395750999450684
tp98
a(I13630
I1081
F3.295557975769043
tp99
a(I20000
I1718
F4.225574970245361
tp100
a(I37200
I3460
F8.539371013641357
tp101
a(I127030
I12428
F26.713349103927612
tp102
a(I468360
I46554
F92.67288589477539
tp103
asa(dp104
g2
(lp105
(I628
I313
F1.462312936782837
tp106
a(I1614
I806
F3.2577221393585205
tp107
a(I2272
I1135
F3.672337055206299
tp108
a(I3612
I1805
F7.437527894973755
tp109
a(I7208
I3603
F14.979586839675903
tp110
a(I25332
I12665
F51.67254304885864
tp111
a(I94592
I47295
F213.37982988357544
tp112
asg11
(lp113
(I971
I8
F0.21272993087768555
tp114
a(I8070
I806
F1.8199961185455322
tp115
a(I11360
I1135
F2.763597011566162
tp116
a(I18060
I1805
F4.870414972305298
tp117
a(I36040
I3603
F9.655395984649658
tp118
a(I126660
I12665
F30.555603981018066
tp119
a(I472960
I47295
F103.28195095062256
tp120
asg20
(lp121
(I1256
I313
F2.308732032775879
tp122
a(I2242
I806
F4.419993877410889
tp123
a(I2900
I1135
F5.298331022262573
tp124
a(I4240
I1805
F8.295717000961304
tp125
a(I7836
I3603
F14.455948114395142
tp126
a(I25960
I12665
F53.51931619644165
tp127
a(I95220
I47295
F206.47247791290283
tp128
asg29
(lp129
(I4111
I313
F1.1018109321594238
tp130
a(I11210
I806
F2.4709630012512207
tp131
a(I14500
I1135
F3.6226577758789062
tp132
a(I21200
I1805
F4.986375093460083
tp133
a(I39180
I3603
F10.895384073257446
tp134
a(I129800
I12665
F32.196110010147095
tp135
a(I476100
I47295
F96.22927188873291
tp136
asa(dp137
g2
(lp138
(I628
I313
F1.463813066482544
tp139
a(I1614
I806
F3.6145529747009277
tp140
a(I2272
I1135
F5.0528740882873535
tp141
a(I3612
I1805
F7.067596912384033
tp142
a(I7208
I3603
F13.809778928756714
tp143
a(I25332
I12665
F57.171838998794556
tp144
a(I94592
I47295
F207.54172897338867
tp145
asg11
(lp146
(I687
I7
F0.3118560314178467
tp147
a(I8070
I806
F2.4019360542297363
tp148
a(I11360
I1135
F3.2736308574676514
tp149
a(I18060
I1805
F4.638278007507324
tp150
a(I36040
I3603
F9.389545917510986
tp151
a(I126660
I12665
F31.7690589427948
tp152
a(I472960
I47295
F111.94990110397339
tp153
asg20
(lp154
(I1256
I313
F2.7391340732574463
tp155
a(I2242
I806
F4.779739856719971
tp156
a(I2900
I1135
F6.392362833023071
tp157
a(I4240
I1805
F8.934385061264038
tp158
a(I7836
I3603
F15.029223918914795
tp159
a(I25960
I12665
F53.30998706817627
tp160
a(I95220
I47295
F206.9528031349182
tp161
asg29
(lp162
(I3827
I313
F1.1237308979034424
tp163
a(I11210
I806
F2.756579875946045
tp164
a(I14500
I1135
F3.577873945236206
tp165
a(I21200
I1805
F5.6485350131988525
tp166
a(I39180
I3603
F9.99085807800293
tp167
a(I129800
I12665
F33.183972120285034
tp168
a(I476100
I47295
F112.60716700553894
tp169
asa(dp170
g2
(lp171
(I660
I329
F1.5200200080871582
tp172
a(I1684
I841
F4.046916961669922
tp173
a(I2326
I1162
F5.495972156524658
tp174
a(I3658
I1828
F9.376740217208862
tp175
a(I7232
I3615
F18.899711847305298
tp176
a(I24682
I12340
F53.69077110290527
tp177
a(I91454
I45726
F181.26827001571655
tp178
asg11
(lp179
(I1789
I21
F0.711205005645752
tp180
a(I8466
I710
F2.516407012939453
tp181
a(I11501
I887
F3.3627870082855225
tp182
a(I19160
I1526
F5.590480804443359
tp183
a(I38644
I3043
F10.50789189338684
tp184
a(I138957
I10290
F36.09791016578674
tp185
a(I526829
I40709
F102.78402090072632
tp186
asg20
(lp187
(I1280
I309
F2.277719020843506
tp188
a(I2062
I695
F5.125826120376587
tp189
a(I2738
I1037
F6.607091903686523
tp190
a(I3906
I1622
F10.530384063720703
tp191
a(I6788
I3063
F17.575144052505493
tp192
a(I22972
I11160
F51.68621206283569
tp193
a(I83234
I41291
F168.78405785560608
tp194
asg29
(lp195
(I5100
I290
F1.8402540683746338
tp196
a(I12158
I775
F3.708956003189087
tp197
a(I15642
I1082
F4.55438494682312
tp198
a(I23254
I1724
F6.698011875152588
tp199
a(I43684
I3464
F12.488543033599854
tp200
a(I144528
I12048
F34.42229890823364
tp201
a(I535019
I45152
F102.06374001502991
tp202
asa(dp203
g2
(lp204
(I658
I328
F1.3355510234832764
tp205
a(I1662
I830
F3.3427951335906982
tp206
a(I2342
I1170
F4.778604030609131
tp207
a(I3702
I1850
F8.962293148040771
tp208
a(I7132
I3565
F14.587231874465942
tp209
a(I25144
I12571
F53.11801099777222
tp210
a(I91932
I45965
F165.85363101959229
tp211
asg11
(lp212
(I1354
I16
F0.31293702125549316
tp213
a(I8109
I672
F2.003264904022217
tp214
a(I12170
I1010
F2.9743099212646484
tp215
a(I18410
I1537
F5.618120908737183
tp216
a(I38793
I3411
F9.83804202079773
tp217
a(I133891
I11975
F33.59241700172424
tp218
a(I492152
I43166
F121.07130885124207
tp219
asg20
(lp220
(I1252
I296
F2.543804883956909
tp221
a(I2230
I784
F3.973302125930786
tp222
a(I2758
I1046
F5.899280071258545
tp223
a(I4282
I1807
F10.270309925079346
tp224
a(I7730
I3539
F16.902073860168457
tp225
a(I24302
I11820
F48.503913164138794
tp226
a(I81606
I40476
F148.34079599380493
tp227
asg29
(lp228
(I4687
I288
F1.1305360794067383
tp229
a(I11928
I760
F2.9186878204345703
tp230
a(I15905
I1085
F3.894327163696289
tp231
a(I23236
I1741
F7.63828706741333
tp232
a(I42060
I3406
F9.978822946548462
tp233
a(I140122
I12264
F34.98021697998047
tp234
a(I505217
I45361
F111.81233096122742
tp235
asa(dp236
g2
(lp237
(I676
I337
F0.983814001083374
tp238
a(I1678
I838
F2.3070881366729736
tp239
a(I2310
I1154
F4.2748870849609375
tp240
a(I3686
I1842
F6.255906820297241
tp241
a(I7042
I3520
F12.13411283493042
tp242
a(I24594
I12296
F45.21501398086548
tp243
a(I92036
I46017
F144.65058779716492
tp244
asg11
(lp245
(I1573
I22
F0.322706937789917
tp246
a(I7788
I699
F1.6510601043701172
tp247
a(I11317
I1010
F2.2670719623565674
tp248
a(I17329
I1471
F3.3017640113830566
tp249
a(I35105
I2963
F6.449844837188721
tp250
a(I134686
I11611
F22.256227016448975
tp251
a(I451731
I37481
F52.29664492607117
tp252
asg20
(lp253
(I1310
I316
F1.8498098850250244
tp254
a(I2276
I800
F3.9375851154327393
tp255
a(I2718
I1025
F4.617073059082031
tp256
a(I3900
I1612
F7.56852912902832
tp257
a(I7616
I3478
F13.780062913894653
tp258
a(I21446
I10390
F39.167888879776
tp259
a(I88140
I43733
F134.4260699748993
tp260
asg29
(lp261
(I4705
I287
F1.0084669589996338
tp262
a(I11174
I751
F2.783362865447998
tp263
a(I14546
I1049
F3.461024045944214
tp264
a(I21743
I1706
F3.9249489307403564
tp265
a(I40787
I3322
F7.324184894561768
tp266
a(I140992
I11912
F23.569010019302368
tp267
a(I511058
I45259
F56.70690202713013
tp268
asa(dp269
g2
(lp270
(I632
I315
F0.8387539386749268
tp271
a(I1614
I806
F2.0892179012298584
tp272
a(I2300
I1149
F3.0436630249023438
tp273
a(I3608
I1803
F4.833817005157471
tp274
a(I7066
I3532
F9.9119131565094
tp275
a(I25058
I12528
F36.63070583343506
tp276
a(I94108
I47053
F126.4789969921112
tp277
asg11
(lp278
(I1963
I23
F0.41161203384399414
tp279
a(I8933
I709
F1.7382359504699707
tp280
a(I12384
I965
F2.312924861907959
tp281
a(I19887
I1536
F3.6193718910217285
tp282
a(I41346
I3218
F7.344790935516357
tp283
a(I144555
I10811
F22.830501794815063
tp284
a(I562381
I42346
F84.07292199134827
tp285
asg20
(lp286
(I1236
I301
F1.7908658981323242
tp287
a(I2106
I733
F2.8591740131378174
tp288
a(I2696
I1023
F3.5545191764831543
tp289
a(I4010
I1682
F5.244373083114624
tp290
a(I6984
I3173
F9.658008813858032
tp291
a(I23698
I11524
F36.01933312416077
tp292
a(I87020
I43182
F114.61377596855164
tp293
asg29
(lp294
(I5405
I285
F1.092453956604004
tp295
a(I12557
I756
F2.5152390003204346
tp296
a(I16552
I1088
F3.0687029361724854
tp297
a(I24445
I1724
F5.126031160354614
tp298
a(I45658
I3419
F7.986546993255615
tp299
a(I158335
I12311
F27.315473079681396
tp300
a(I595020
I46629
F86.82935690879822
tp301
asa(dp302
g2
(lp303
(I628
I313
F0.8533282279968262
tp304
a(I1614
I806
F1.9409971237182617
tp305
a(I2272
I1135
F3.2516870498657227
tp306
a(I3612
I1805
F4.424794912338257
tp307
a(I7208
I3603
F9.140219926834106
tp308
a(I25332
I12665
F31.283311128616333
tp309
a(I94592
I47295
F112.0519630908966
tp310
asg11
(lp311
(I763
I9
F0.12356710433959961
tp312
a(I7880
I787
F1.0445640087127686
tp313
a(I11130
I1112
F1.6177818775177002
tp314
a(I17770
I1776
F2.456655979156494
tp315
a(I35630
I3562
F4.711220979690552
tp316
a(I125900
I12589
F16.17994499206543
tp317
a(I471480
I47147
F56.31386995315552
tp318
asg20
(lp319
(I1256
I313
F1.41988205909729
tp320
a(I2242
I806
F2.65655779838562
tp321
a(I2900
I1135
F3.720202922821045
tp322
a(I4240
I1805
F5.129822015762329
tp323
a(I7836
I3603
F9.808873176574707
tp324
a(I25960
I12665
F32.897984981536865
tp325
a(I95220
I47295
F116.53340816497803
tp326
asg29
(lp327
(I3783
I301
F0.5456888675689697
tp328
a(I10900
I787
F1.4316210746765137
tp329
a(I14150
I1112
F1.9265031814575195
tp330
a(I20790
I1776
F2.8342719078063965
tp331
a(I38650
I3562
F5.044003009796143
tp332
a(I128920
I12589
F16.519338846206665
tp333
a(I474500
I47147
F55.597862005233765
tp334
asa.