(lp0
(dp1
S'karakosta'
p2
(lp3
sS'vanilla'
p4
(lp5
sS'beta'
p6
(lp7
sS'two_approx'
p8
(lp9
(I12358
I6158
F11.396458864212036
tp10
a(I18216
I9060
F41.47532081604004
tp11
a(I41490
I20691
F163.7133309841156
tp12
asa(dp13
g2
(lp14
sg4
(lp15
sg6
(lp16
sg8
(lp17
(I15452
I7688
F12.393128871917725
tp18
a(I17986
I8957
F37.277071952819824
tp19
a(I32370
I16145
F133.94707107543945
tp20
asa(dp21
g2
(lp22
sg4
(lp23
sg6
(lp24
sg8
(lp25
(I19480
I9666
F19.826412200927734
tp26
a(I44382
I22169
F94.8714439868927
tp27
a(I55620
I27786
F212.5562150478363
tp28
asa(dp29
g2
(lp30
sg4
(lp31
sg6
(lp32
sg8
(lp33
(I18774
I9301
F15.985438108444214
tp34
a(I18288
I9096
F43.941452980041504
tp35
a(I23392
I11671
F107.06599402427673
tp36
asa(dp37
g2
(lp38
sg4
(lp39
sg6
(lp40
sg8
(lp41
(I28642
I14294
F21.047639846801758
tp42
a(I35258
I17581
F78.18842911720276
tp43
a(I33966
I16938
F138.0899269580841
tp44
asa(dp45
g2
(lp46
sg4
(lp47
sg6
(lp48
sg8
(lp49
(I26578
I13224
F22.343448162078857
tp50
a(I22138
I11042
F44.57343101501465
tp51
a(I27940
I13924
F112.5254180431366
tp52
asa(dp53
g2
(lp54
sg4
(lp55
sg6
(lp56
sg8
(lp57
(I17670
I8760
F15.197962999343872
tp58
a(I16982
I8465
F35.91525197029114
tp59
a(I32140
I16032
F157.5151710510254
tp60
asa(dp61
g2
(lp62
sg4
(lp63
sg6
(lp64
sg8
(lp65
(I28734
I14325
F25.08872103691101
tp66
a(I33004
I16442
F75.6886670589447
tp67
a(I50924
I25394
F230.08030796051025
tp68
asa(dp69
g2
(lp70
sg4
(lp71
sg6
(lp72
sg8
(lp73
(I28670
I14294
F26.839062929153442
tp74
a(I27580
I13767
F76.92182612419128
tp75
a(I28844
I14383
F179.92229294776917
tp76
asa(dp77
g2
(lp78
sg4
(lp79
sg6
(lp80
sg8
(lp81
(I25896
I12926
F22.60399317741394
tp82
a(I44280
I22077
F100.35314297676086
tp83
a(I29230
I14581
F121.08185505867004
tp84
asa.