(lp0
(dp1
S'karakosta'
p2
(lp3
(I21084
I10541
I200
I20792959
F17.60089111328125
tp4
a(I22376
I11187
I200
I73536306
F46.024649143218994
tp5
a(I16876
I8437
I200
I113742337
F64.84533596038818
tp6
asS'vanilla'
p7
(lp8
(I51689
I989
I200
I4379882
F14.407793998718262
tp9
a(I9762
I93
I200
I792762
F2.3378210067749023
tp10
a(I21591
I156
I200
I1379019
F3.284024953842163
tp11
asS'beta'
p12
(lp13
(I77653
I10364
I200
I9726954
F22.285937070846558
tp14
a(I111180
I11117
I200
I13380199
F28.097954988479614
tp15
a(I125325
I8354
I200
I10202083
F19.548632860183716
tp16
asS'two_approx'
p17
(lp18
(I21634
I10541
I200
I21306448
F16.239134073257446
tp19
a(I22934
I11187
I200
I75057916
F47.35002088546753
tp20
a(I17302
I8437
I200
I116280224
F62.54980802536011
tp21
asa(dp22
g2
(lp23
(I28648
I14323
I200
I33752975
F24.784250020980835
tp24
a(I25656
I12827
I200
I95726823
F60.636168003082275
tp25
a(I15500
I7749
I200
I118634608
F60.510411977767944
tp26
asg7
(lp27
(I38265
I1059
I200
I4302816
F11.141727924346924
tp28
a(I87229
I970
I200
I7556264
F22.878605127334595
tp29
a(I12626
I93
I200
I923983
F2.766904830932617
tp30
asg12
(lp31
(I83341
I14306
I200
I13448152
F24.58042621612549
tp32
a(I155344
I12661
I200
I17318082
F38.31666398048401
tp33
a(I114975
I7664
I200
I11699686
F26.18430495262146
tp34
asg17
(lp35
(I29070
I14323
I200
I34207292
F27.111103057861328
tp36
a(I26026
I12827
I200
I96924753
F61.48693799972534
tp37
a(I15894
I7749
I200
I121195880
F67.60343909263611
tp38
asa(dp39
g2
(lp40
(I18756
I9377
I200
I19395498
F17.05894184112549
tp41
a(I40444
I20221
I200
I147899437
F87.4436559677124
tp42
a(I55574
I27786
I200
I423155920
F223.01631784439087
tp43
asg7
(lp44
(I29839
I925
I200
I2226357
F6.651762008666992
tp45
a(I64140
I762
I200
I4776381
F13.359938144683838
tp46
a(I83107
I597
I200
I5436881
F15.775386095046997
tp47
asg12
(lp48
(I57977
I9241
I200
I7814832
F14.32828402519226
tp49
a(I211287
I20135
I200
I23004366
F47.48292899131775
tp50
a(I420281
I27786
I200
I35979418
F76.19161105155945
tp51
asg17
(lp52
(I19240
I9377
I200
I19829468
F16.80194401741028
tp53
a(I41118
I20221
I200
I150023276
F88.25991606712341
tp54
a(I56164
I27786
I200
I427067478
F231.18871688842773
tp55
asa(dp56
g2
(lp57
(I15686
I7842
I200
I18493570
F13.033915996551514
tp58
a(I31704
I15851
I200
I115047894
F70.19189620018005
tp59
a(I19412
I9705
I200
I201332807
F99.73265600204468
tp60
asg7
(lp61
(I33107
I495
I200
I2938829
F7.872434139251709
tp62
a(I51893
I577
I200
I4205017
F12.810163021087646
tp63
a(I48421
I319
I200
I3239844
F9.185824871063232
tp64
asg12
(lp65
(I50490
I7771
I200
I7240974
F12.510792016983032
tp66
a(I158402
I15700
I200
I17980231
F38.892329931259155
tp67
a(I143145
I9542
I200
I13154120
F28.9251389503479
tp68
asg17
(lp69
(I16084
I7842
I200
I18899819
F12.65631103515625
tp70
a(I32212
I15851
I200
I116694076
F73.12167406082153
tp71
a(I19912
I9705
I200
I204868597
F101.34952187538147
tp72
asa(dp73
g2
(lp74
(I24498
I12248
I200
I21339143
F19.621390104293823
tp75
a(I33318
I16658
I200
I109846355
F60.86241102218628
tp76
a(I30844
I15421
I200
I260850443
F137.74088597297668
tp77
asg7
(lp78
(I35210
I1943
I200
I2652221
F5.160092115402222
tp79
a(I46093
I510
I200
I3631644
F10.525424003601074
tp80
a(I59920
I344
I200
I4161697
F10.391035079956055
tp81
asg12
(lp82
(I69611
I12127
I200
I8943790
F13.299906969070435
tp83
a(I167389
I16505
I200
I18051542
F40.00495100021362
tp84
a(I230580
I15371
I200
I21396140
F49.05325794219971
tp85
asg17
(lp86
(I25120
I12248
I200
I21880312
F18.2620849609375
tp87
a(I33862
I16658
I200
I111490404
F71.6938099861145
tp88
a(I31300
I15421
I200
I264091112
F130.56297492980957
tp89
asa(dp90
g2
(lp91
(I28648
I14323
I200
I32805107
F28.087937116622925
tp92
a(I19142
I9570
I200
I79992518
F46.39203906059265
tp93
a(I38502
I19250
I200
I288830015
F160.5174810886383
tp94
asg7
(lp95
(I93805
I2665
I200
I9948666
F26.205580949783325
tp96
a(I54048
I656
I200
I3398363
F8.02644395828247
tp97
a(I64718
I531
I200
I5502427
F15.765850067138672
tp98
asg12
(lp99
(I129622
I14282
I200
I17582045
F37.4142529964447
tp100
a(I101879
I9410
I200
I9599926
F17.826613903045654
tp101
a(I285990
I19065
I200
I27941076
F66.65291690826416
tp102
asg17
(lp103
(I29068
I14323
I200
I33289957
F26.016541004180908
tp104
a(I19636
I9570
I200
I81568063
F45.971765995025635
tp105
a(I39166
I19250
I200
I293202135
F170.97955012321472
tp106
asa.