(lp0
(dp1
S'karakosta'
p2
(lp3
(I11663
I11662
I200
I170634908
F91.54972910881042
tp4
a(I44340
I22169
I200
I139785307
F90.19472908973694
tp5
a(I49266
I16421
I200
I74218733
F59.42149615287781
tp6
a(I185860
I18585
I200
I26634694
F66.29936003684998
tp7
asS'vanilla'
p8
(lp9
(I60597
I624
I200
I4181209
F16.47357201576233
tp10
a(I34298
I344
I200
I2861374
F7.903825998306274
tp11
a(I88762
I1263
I200
I8074678
F25.14320707321167
tp12
a(I98188
I1440
I200
I9708384
F30.38626003265381
tp13
asS'beta'
p14
(lp15
(I124240
I11253
I200
I11890670
F25.688245058059692
tp16
a(I221700
I22169
I200
I24928650
F54.980993032455444
tp17
a(I202970
I16238
I200
I23444781
F53.540802001953125
tp18
a(I211239
I18584
I200
I26159540
F62.684950828552246
tp19
asS'two_approx'
p20
(lp21
(I11979
I11662
I200
I174359941
F89.21178603172302
tp22
a(I45116
I22169
I200
I141790973
F93.92801713943481
tp23
a(I50091
I16421
I200
I75348280
F58.93766784667969
tp24
a(I188820
I18585
I200
I27061074
F67.07485318183899
tp25
asa(dp26
g2
(lp27
(I16076
I16075
I200
I207593961
F108.82200503349304
tp28
a(I34290
I17144
I200
I137891274
F82.10694003105164
tp29
a(I42918
I14305
I200
I69813072
F51.01910710334778
tp30
a(I221700
I22169
I200
I32158599
F80.29890084266663
tp31
asg8
(lp32
(I24611
I203
I200
I2013997
F5.724090814590454
tp33
a(I145247
I2322
I200
I13546505
F41.02691102027893
tp34
a(I86784
I873
I200
I6953220
F21.097804069519043
tp35
a(I41941
I530
I200
I4344954
F12.261543989181519
tp36
asg14
(lp37
(I160190
I16018
I200
I17765989
F33.400928020477295
tp38
a(I232511
I16861
I200
I26907934
F69.197998046875
tp39
a(I172988
I14180
I200
I18676740
F44.268584966659546
tp40
a(I221700
I22169
I200
I30489218
F71.18112182617188
tp41
asg20
(lp42
(I16320
I16075
I200
I210391114
F106.75930500030518
tp43
a(I34888
I17144
I200
I139983938
F84.88749098777771
tp44
a(I43572
I14305
I200
I70791315
F54.17276096343994
tp45
a(I225580
I22169
I200
I32719995
F78.8909981250763
tp46
asa(dp47
g2
(lp48
(I14320
I14319
I200
I233740621
F105.64362812042236
tp49
a(I27592
I13795
I200
I98843140
F57.58349800109863
tp50
a(I59931
I19976
I200
I89438679
F67.0811059474945
tp51
a(I221860
I22185
I200
I32374286
F78.6771399974823
tp52
asg8
(lp53
(I65793
I716
I200
I5119192
F13.092266082763672
tp54
a(I77635
I756
I200
I6943127
F20.137244939804077
tp55
a(I82813
I1312
I200
I8122406
F23.612014055252075
tp56
a(I105263
I1153
I200
I10645915
F29.59447193145752
tp57
asg14
(lp58
(I151184
I14121
I200
I15802072
F35.85086798667908
tp59
a(I157228
I13623
I200
I17591019
F37.975359201431274
tp60
a(I216967
I19768
I200
I25881369
F56.94786214828491
tp61
a(I245534
I22185
I200
I32055392
F80.24022197723389
tp62
asg20
(lp63
(I14546
I14319
I200
I236769515
F112.29092693328857
tp64
a(I28020
I13795
I200
I100141426
F60.85568809509277
tp65
a(I61002
I19976
I200
I90838785
F67.1978850364685
tp66
a(I225750
I22185
I200
I32943983
F81.87054777145386
tp67
asa(dp68
g2
(lp69
(I10788
I10787
I200
I138701422
F73.52999591827393
tp70
a(I18344
I9171
I200
I86799176
F50.62628889083862
tp71
a(I32868
I10955
I200
I47744103
F38.06036901473999
tp72
a(I221460
I22145
I200
I31748519
F76.28268909454346
tp73
asg8
(lp74
(I68206
I982
I200
I5313419
F15.30343508720398
tp75
a(I50794
I506
I200
I4229048
F12.659955024719238
tp76
a(I29641
I326
I200
I2387899
F7.477806091308594
tp77
a(I81554
I1186
I200
I8129130
F24.313331127166748
tp78
asg14
(lp79
(I122378
I10453
I200
I13165303
F30.64901900291443
tp80
a(I98032
I9015
I200
I11090090
F23.044306993484497
tp81
a(I108920
I10891
I200
I12080481
F25.923659086227417
tp82
a(I237772
I22144
I200
I29500705
F68.87805318832397
tp83
asg20
(lp84
(I11076
I10787
I200
I142152921
F71.17142391204834
tp85
a(I18818
I9171
I200
I88547600
F53.331926107406616
tp86
a(I33687
I10955
I200
I48851581
F36.9800488948822
tp87
a(I225300
I22145
I200
I32299432
F74.98342704772949
tp88
asa.