(lp0
(dp1
S'karakosta'
p2
(lp3
sS'vanilla'
p4
(lp5
sS'beta'
p6
(lp7
sS'two_approx'
p8
(lp9
(I10142
I10100
F76.57593011856079
tp10
a(I30226
I15038
F67.6753339767456
tp11
a(I36390
I12096
F40.465489864349365
tp12
a(I221810
I22169
F73.02709889411926
tp13
asa(dp14
g2
(lp15
sg4
(lp16
sg6
(lp17
sg8
(lp18
(I15090
I15030
F98.74105191230774
tp19
a(I24542
I12234
F49.918517112731934
tp20
a(I37233
I12392
F46.08371710777283
tp21
a(I222130
I22178
F78.90308618545532
tp22
asa(dp23
g2
(lp24
sg4
(lp25
sg6
(lp26
sg8
(lp27
(I9185
I9146
F63.03825306892395
tp28
a(I43748
I21823
F94.86372590065002
tp29
a(I66573
I22169
F64.68245005607605
tp30
a(I221930
I22169
F79.66933393478394
tp31
asa(dp32
g2
(lp33
sg4
(lp34
sg6
(lp35
sg8
(lp36
(I7113
I7070
F51.654009103775024
tp37
a(I41432
I20681
F85.76857018470764
tp38
a(I66582
I22169
F68.85999393463135
tp39
a(I221950
I22169
F72.94975113868713
tp40
asa(dp41
g2
(lp42
sg4
(lp43
sg6
(lp44
sg8
(lp45
(I15082
I15044
F113.66574001312256
tp46
a(I23982
I11952
F52.27514696121216
tp47
a(I42015
I13970
F48.74513506889343
tp48
a(I221910
I22165
F79.96537208557129
tp49
asa(dp50
g2
(lp51
sg4
(lp52
sg6
(lp53
sg8
(lp54
(I12929
I12882
F96.65312600135803
tp55
a(I18988
I9448
F43.361051082611084
tp56
a(I56346
I18744
F61.523805141448975
tp57
a(I221830
I22169
F71.81762385368347
tp58
asa(dp59
g2
(lp60
sg4
(lp61
sg6
(lp62
sg8
(lp63
(I15343
I15275
F99.94577193260193
tp64
a(I44318
I22130
F113.23292112350464
tp65
a(I66588
I22169
F91.80089998245239
tp66
a(I221790
I22169
F94.25054502487183
tp67
asa(dp68
g2
(lp69
sg4
(lp70
sg6
(lp71
sg8
(lp72
(I14012
I13937
F101.66212511062622
tp73
a(I36312
I18088
F82.53376889228821
tp74
a(I33279
I11079
F32.768070936203
tp75
a(I221980
I22155
F82.23852920532227
tp76
asa(dp77
g2
(lp78
sg4
(lp79
sg6
(lp80
sg8
(lp81
(I8636
I8595
F48.64439105987549
tp82
a(I16422
I8199
F30.53487491607666
tp83
a(I47841
I15898
F43.08628487586975
tp84
a(I221690
I22143
F63.197556018829346
tp85
asa(dp86
g2
(lp87
sg4
(lp88
sg6
(lp89
sg8
(lp90
(I4521
I4496
F28.476938009262085
tp91
a(I23306
I11639
F37.250349044799805
tp92
a(I60978
I20242
F60.33896493911743
tp93
a(I221890
I22164
F61.50455188751221
tp94
asa.