(lp0
(dp1
S'karakosta'
p2
(lp3
(I16516
I8257
I100
I46641276
F33.805505990982056
tp4
a(I27794
I13896
I200
I104876500
F66.11189818382263
tp5
a(I24970
I12484
I300
I106575489
F67.49160099029541
tp6
a(I31546
I15772
I400
I148241405
F101.4317979812622
tp7
asS'vanilla'
p8
(lp9
(I71764
I950
I100
I2546243
F8.509590864181519
tp10
a(I100672
I1042
I200
I7349010
F20.218798875808716
tp11
a(I43141
I452
I300
I5038796
F14.425063848495483
tp12
a(I84561
I996
I400
I10674339
F30.509244918823242
tp13
asS'beta'
p14
(lp15
(I115577
I7907
I100
I5253103
F12.706432104110718
tp16
a(I173269
I13715
I200
I17368726
F36.09147310256958
tp17
a(I122530
I12252
I300
I19574736
F47.453628063201904
tp18
a(I172745
I15630
I400
I32264113
F78.13299298286438
tp19
asS'two_approx'
p20
(lp21
(I16978
I8257
I100
I47749040
F30.096739053726196
tp22
a(I28224
I13896
I200
I106376375
F71.49170207977295
tp23
a(I25618
I12484
I300
I108816653
F68.77239513397217
tp24
a(I32026
I15772
I400
I150120931
F100.28734707832336
tp25
asa(dp26
g2
(lp27
(I13654
I6826
I100
I40865957
F24.422677993774414
tp28
a(I37714
I18856
I200
I132286782
F83.87913012504578
tp29
a(I47324
I23661
I300
I176176242
F125.47822117805481
tp30
a(I36880
I18439
I400
I184381905
F133.3252329826355
tp31
asg8
(lp32
(I22364
I254
I100
I967203
F2.051841974258423
tp33
a(I92537
I880
I200
I8004826
F24.81137490272522
tp34
a(I71291
I1135
I300
I10333007
F29.217658042907715
tp35
a(I111540
I930
I400
I16545187
F57.88964796066284
tp36
asg14
(lp37
(I67570
I6756
I100
I4198346
F8.1268630027771
tp38
a(I205812
I18700
I200
I23630124
F52.67498803138733
tp39
a(I244370
I23661
I300
I46527206
F115.95748090744019
tp40
a(I197874
I18135
I400
I43863051
F109.43006801605225
tp41
asg20
(lp42
(I14002
I6826
I100
I41867023
F26.316136121749878
tp43
a(I38362
I18856
I200
I134361272
F84.93187284469604
tp44
a(I48152
I23661
I300
I178869002
F123.19043302536011
tp45
a(I37518
I18439
I400
I187034398
F134.46664190292358
tp46
asa(dp47
g2
(lp48
(I39248
I19623
I100
I113791427
F70.08559894561768
tp49
a(I44346
I22172
I200
I147383368
F100.62857794761658
tp50
a(I47324
I23661
I300
I178564591
F118.46007204055786
tp51
a(I30252
I15125
I400
I149299663
F99.11545419692993
tp52
asg8
(lp53
(I90284
I1255
I100
I4077142
F10.023758888244629
tp54
a(I80284
I920
I200
I6712806
F17.509837865829468
tp55
a(I24691
I277
I300
I3404201
F10.411041975021362
tp56
a(I104157
I1205
I400
I13891820
F46.9853150844574
tp57
asg14
(lp58
(I220707
I19586
I100
I12711121
F25.94548797607422
tp59
a(I231107
I22117
I200
I26716118
F60.749500036239624
tp60
a(I236620
I23661
I300
I45262052
F103.70564889907837
tp61
a(I189646
I15035
I400
I34643907
F77.95583009719849
tp62
asg20
(lp63
(I39944
I19623
I100
I115610170
F72.80498790740967
tp64
a(I45128
I22172
I200
I149814678
F98.32189011573792
tp65
a(I48152
I23661
I300
I181229413
F122.6352550983429
tp66
a(I30682
I15125
I400
I151044663
F106.6783938407898
tp67
asa.