(lp0
(dp1
S'karakosta'
p2
(lp3
sS'vanilla'
p4
(lp5
sS'beta'
p6
(lp7
sS'two_approx'
p8
(lp9
(I18346
I9145
F32.336575984954834
tp10
a(I44458
I22191
F89.23726511001587
tp11
a(I47362
I23661
F104.69031000137329
tp12
a(I27934
I13946
F85.88926315307617
tp13
asa(dp14
g2
(lp15
sg4
(lp16
sg6
(lp17
sg8
(lp18
(I31268
I15609
F47.22473096847534
tp19
a(I17120
I8521
F32.86282801628113
tp20
a(I25408
I12676
F66.31640386581421
tp21
a(I17744
I8846
F53.12026000022888
tp22
asa(dp23
g2
(lp24
sg4
(lp25
sg6
(lp26
sg8
(lp27
(I39304
I19617
F61.31321120262146
tp28
a(I15972
I7946
F32.864009857177734
tp29
a(I20218
I10081
F53.52235198020935
tp30
a(I49488
I24720
F125.60578608512878
tp31
asa(dp32
g2
(lp33
sg4
(lp34
sg6
(lp35
sg8
(lp36
(I39110
I19521
F61.738279819488525
tp37
a(I36720
I18306
F83.16659903526306
tp38
a(I19284
I9617
F50.535013914108276
tp39
a(I22954
I11458
F59.92212104797363
tp40
asa(dp41
g2
(lp42
sg4
(lp43
sg6
(lp44
sg8
(lp45
(I22108
I11009
F40.35182809829712
tp46
a(I44456
I22179
F87.2357189655304
tp47
a(I30344
I15079
F84.97277188301086
tp48
a(I29944
I14886
F90.69825792312622
tp49
asa(dp50
g2
(lp51
sg4
(lp52
sg6
(lp53
sg8
(lp54
(I39268
I19617
F48.83383107185364
tp55
a(I26778
I13364
F55.50729203224182
tp56
a(I24532
I12235
F67.63072609901428
tp57
a(I18738
I9314
F53.963335037231445
tp58
asa(dp59
g2
(lp60
sg4
(lp61
sg6
(lp62
sg8
(lp63
(I23616
I11736
F41.84569501876831
tp64
a(I25292
I12614
F60.020880937576294
tp65
a(I44094
I21988
F118.95851421356201
tp66
a(I29628
I14749
F98.81876802444458
tp67
asa(dp68
g2
(lp69
sg4
(lp70
sg6
(lp71
sg8
(lp72
(I34606
I17279
F73.20743799209595
tp73
a(I31388
I15674
F80.74257493019104
tp74
a(I36146
I18009
F120.36185002326965
tp75
a(I49586
I24751
F150.1367290019989
tp76
asa(dp77
g2
(lp78
sg4
(lp79
sg6
(lp80
sg8
(lp81
(I18596
I9237
F35.36506104469299
tp82
a(I44390
I22169
F78.94424891471863
tp83
a(I32894
I16410
F75.39885091781616
tp84
a(I28510
I14233
F65.47599911689758
tp85
asa(dp86
g2
(lp87
sg4
(lp88
sg6
(lp89
sg8
(lp90
(I15988
I7955
F22.05588698387146
tp91
a(I26516
I13233
F45.82002401351929
tp92
a(I47404
I23661
F98.18620181083679
tp93
a(I16728
I8325
F36.02692413330078
tp94
asa.