(lp0
(dp1
S'karakosta'
p2
(lp3
(I1098
I548
I200
I2881037
F3.5479750633239746
tp4
a(I2824
I1411
I200
I7757586
F6.121083974838257
tp5
a(I3976
I1987
I200
I11105910
F7.541115999221802
tp6
a(I6322
I3160
I200
I18020634
F12.876888036727905
tp7
a(I12616
I6307
I200
I37115661
F26.51113796234131
tp8
a(I44340
I22169
I200
I137511159
F88.33194398880005
tp9
a(I165552
I82775
I200
I555435528
F355.8539309501648
tp10
asS'vanilla'
p11
(lp12
(I1040
I16
I200
I98777
F1.141188144683838
tp13
a(I10020
I1001
I200
I1219821
F3.3571009635925293
tp14
a(I14120
I1411
I200
I1713297
F4.2045722007751465
tp15
a(I22480
I2247
I200
I2718378
F6.324156999588013
tp16
a(I44920
I4491
I200
I5394909
F11.29811406135559
tp17
a(I158080
I15807
I200
I18163012
F39.63300013542175
tp18
a(I590730
I59072
I200
I64805480
F133.30615305900574
tp19
asS'beta'
p20
(lp21
(I5490
I548
I200
I676404
F2.4959042072296143
tp22
a(I14120
I1411
I200
I1730802
F4.894912004470825
tp23
a(I19880
I1987
I200
I2432435
F5.103204965591431
tp24
a(I31610
I3160
I200
I3856189
F7.806645154953003
tp25
a(I63080
I6307
I200
I7651451
F18.62067699432373
tp26
a(I221700
I22169
I200
I25940974
F56.158838987350464
tp27
a(I827760
I82775
I200
I92908845
F200.1566081047058
tp28
asS'two_approx'
p29
(lp30
(I1874
I548
I200
I5016013
F4.539384841918945
tp31
a(I3600
I1411
I200
I9892562
F6.803047180175781
tp32
a(I4752
I1987
I200
I13240886
F9.151893854141235
tp33
a(I7098
I3160
I200
I20155610
F12.772567987442017
tp34
a(I13392
I6307
I200
I39250637
F25.26566195487976
tp35
a(I45116
I22169
I200
I139646135
F94.03404784202576
tp36
a(I166328
I82775
I200
I557570504
F363.4709401130676
tp37
asa(dp38
g2
(lp39
(I298
I148
I200
I797745
F0.9482641220092773
tp40
a(I750
I374
I200
I2168818
F1.4998807907104492
tp41
a(I1050
I524
I200
I3129252
F1.9019880294799805
tp42
a(I1660
I829
I200
I5181334
F4.087134838104248
tp43
a(I3290
I1644
I200
I10725095
F8.397649049758911
tp44
a(I11466
I5732
I200
I39191389
F25.296788930892944
tp45
a(I42624
I21311
I200
I155084404
F96.85295581817627
tp46
asg11
(lp47
(I560
I7
I200
I53921
F0.5141699314117432
tp48
a(I3550
I354
I200
I427505
F1.2167940139770508
tp49
a(I5010
I500
I200
I591397
F1.4239821434020996
tp50
a(I8000
I799
I200
I926023
F2.1290500164031982
tp51
a(I16020
I1601
I200
I1809696
F3.655386209487915
tp52
a(I56530
I5652
I200
I6240389
F13.552536964416504
tp53
a(I211560
I21155
I200
I22225006
F46.64412498474121
tp54
asg20
(lp55
(I1370
I136
I200
I170080
F0.44056200981140137
tp56
a(I3550
I354
I200
I429505
F0.8614718914031982
tp57
a(I5010
I500
I200
I593397
F1.4645240306854248
tp58
a(I8000
I799
I200
I928023
F2.012902021408081
tp59
a(I16020
I1601
I200
I1811696
F4.684383869171143
tp60
a(I56530
I5652
I200
I6242389
F13.949676036834717
tp61
a(I211560
I21155
I200
I22227006
F45.54258894920349
tp62
asg29
(lp63
(I596
I148
I200
I1592790
F1.1975040435791016
tp64
a(I1048
I374
I200
I2963863
F2.3986029624938965
tp65
a(I1348
I524
I200
I3924297
F2.5783369541168213
tp66
a(I1958
I829
I200
I5976379
F4.527477025985718
tp67
a(I3588
I1644
I200
I11520140
F7.9740891456604
tp68
a(I11764
I5732
I200
I39986434
F25.010162115097046
tp69
a(I42922
I21311
I200
I155879449
F98.80478191375732
tp70
asa(dp71
g2
(lp72
(I858
I428
I200
I2369508
F1.962925910949707
tp73
a(I2198
I1098
I200
I6519528
F4.456692934036255
tp74
a(I3086
I1542
I200
I9244174
F5.57880711555481
tp75
a(I4900
I2449
I200
I15078857
F9.534532070159912
tp76
a(I9756
I4877
I200
I30799828
F19.382115125656128
tp77
a(I34186
I17092
I200
I111193135
F75.22963809967041
tp78
a(I127434
I63716
I200
I417410708
F256.2613580226898
tp79
asg11
(lp80
(I1051
I15
I200
I99773
F0.46797895431518555
tp81
a(I6904
I660
I200
I805450
F2.1055209636688232
tp82
a(I9807
I934
I200
I1136423
F3.195847988128662
tp83
a(I15733
I1493
I200
I1807677
F3.9293439388275146
tp84
a(I31959
I2999
I200
I3618928
F8.124143838882446
tp85
a(I114213
I10614
I200
I12086858
F24.119757890701294
tp86
a(I428652
I39783
I200
I43191404
F90.1662950515747
tp87
asg20
(lp88
(I4183
I413
I200
I482534
F1.6326780319213867
tp89
a(I10915
I1072
I200
I1279767
F3.33854079246521
tp90
a(I15393
I1512
I200
I1803343
F3.6549088954925537
tp91
a(I24510
I2409
I200
I2860837
F7.1615071296691895
tp92
a(I49260
I4820
I200
I5671255
F13.056727886199951
tp93
a(I173457
I16984
I200
I18892985
F45.407796144485474
tp94
a(I647719
I63504
I200
I66677537
F137.5910849571228
tp95
asg29
(lp96
(I1406
I428
I200
I3960373
F2.9291229248046875
tp97
a(I2746
I1098
I200
I8110393
F5.1889121532440186
tp98
a(I3634
I1542
I200
I10835039
F8.282126903533936
tp99
a(I5448
I2449
I200
I16669722
F12.439267873764038
tp100
a(I10304
I4877
I200
I32390693
F22.813750982284546
tp101
a(I34734
I17092
I200
I112784000
F74.23940396308899
tp102
a(I127982
I63716
I200
I419001573
F272.35212802886963
tp103
asa(dp104
g2
(lp105
(I366
I182
I200
I1039581
F0.78843092918396
tp106
a(I898
I448
I200
I2676922
F2.253603935241699
tp107
a(I1246
I622
I200
I3749086
F2.8120999336242676
tp108
a(I1948
I973
I200
I5941866
F3.903331995010376
tp109
a(I3810
I1904
I200
I11846625
F7.5925140380859375
tp110
a(I13066
I6532
I200
I41722915
F29.56384801864624
tp111
a(I48080
I24039
I200
I156634143
F102.62527704238892
tp112
asg11
(lp113
(I696
I5
I200
I65012
F0.21119403839111328
tp114
a(I3950
I394
I200
I494413
F1.0614690780639648
tp115
a(I5580
I557
I200
I685633
F1.5672991275787354
tp116
a(I8900
I889
I200
I1072501
F2.2809321880340576
tp117
a(I17840
I1783
I200
I2103785
F4.6711649894714355
tp118
a(I62990
I6298
I200
I7267355
F16.501986980438232
tp119
a(I235810
I23580
I200
I26959513
F56.98084497451782
tp120
asg20
(lp121
(I1520
I151
I200
I192905
F0.38927292823791504
tp122
a(I3950
I394
I200
I496413
F1.501568078994751
tp123
a(I5580
I557
I200
I687633
F1.2864530086517334
tp124
a(I8900
I889
I200
I1074501
F2.7303268909454346
tp125
a(I17840
I1783
I200
I2105785
F4.3459930419921875
tp126
a(I62990
I6298
I200
I7269355
F15.560940980911255
tp127
a(I235810
I23580
I200
I26961513
F56.65727090835571
tp128
asg29
(lp129
(I732
I182
I200
I2076462
F1.426711082458496
tp130
a(I1264
I448
I200
I3713803
F2.443264961242676
tp131
a(I1612
I622
I200
I4785967
F4.251240015029907
tp132
a(I2314
I973
I200
I6978747
F4.476088047027588
tp133
a(I4176
I1904
I200
I12883506
F9.748234987258911
tp134
a(I13432
I6532
I200
I42759796
F27.11012601852417
tp135
a(I48446
I24039
I200
I157671024
F101.85475206375122
tp136
asa.