(lp0
(dp1
S'karakosta'
p2
(lp3
sS'vanilla'
p4
(lp5
sS'beta'
p6
(lp7
sS'two_approx'
p8
(lp9
(I818
I360
F2.5933148860931396
tp10
a(I2262
I916
F5.819111108779907
tp11
a(I3000
I1285
F6.213167905807495
tp12
a(I4500
I2035
F8.467945098876953
tp13
a(I8508
I4039
F16.5327570438385
tp14
a(I28636
I14103
F63.30069017410278
tp15
a(I105350
I52460
F240.71458983421326
tp16
asa(dp17
g2
(lp18
sg4
(lp19
sg6
(lp20
sg8
(lp21
(I686
I302
F1.8068530559539795
tp22
a(I2152
I772
F4.382264852523804
tp23
a(I2778
I1085
F4.8630499839782715
tp24
a(I4050
I1721
F7.86737585067749
tp25
a(I7460
I3426
F14.82389497756958
tp26
a(I24602
I11997
F57.280186891555786
tp27
a(I90002
I44697
F210.4932758808136
tp28
asa(dp29
g2
(lp30
sg4
(lp31
sg6
(lp32
sg8
(lp33
(I538
I247
F1.4667317867279053
tp34
a(I1764
I633
F3.878129005432129
tp35
a(I2278
I890
F4.402606964111328
tp36
a(I3326
I1414
F7.1228578090667725
tp37
a(I6134
I2818
F13.007622957229614
tp38
a(I20272
I9887
F40.01388907432556
tp39
a(I74264
I36883
F163.23871397972107
tp40
asa(dp41
g2
(lp42
sg4
(lp43
sg6
(lp44
sg8
(lp45
(I708
I339
F1.2690730094909668
tp46
a(I2104
I868
F3.8342199325561523
tp47
a(I2806
I1219
F5.789131164550781
tp48
a(I4238
I1935
F7.083136081695557
tp49
a(I8074
I3853
F12.953411102294922
tp50
a(I27376
I13504
F43.843255043029785
tp51
a(I101052
I50342
F184.1558051109314
tp52
asa(dp53
g2
(lp54
sg4
(lp55
sg6
(lp56
sg8
(lp57
(I992
I412
F2.148832082748413
tp58
a(I2620
I1040
F6.0531299114227295
tp59
a(I3450
I1455
F7.840569972991943
tp60
a(I5136
I2298
F11.546648979187012
tp61
a(I9634
I4547
F20.40286087989807
tp62
a(I32166
I15813
F80.37643003463745
tp63
a(I117884
I58672
F294.8223760128021
tp64
asa(dp65
g2
(lp66
sg4
(lp67
sg6
(lp68
sg8
(lp69
(I812
I358
F2.0030739307403564
tp70
a(I2244
I909
F3.9890048503875732
tp71
a(I2974
I1274
F5.9207000732421875
tp72
a(I4460
I2017
F9.038366794586182
tp73
a(I8434
I4004
F17.109694004058838
tp74
a(I28382
I13978
F59.22345995903015
tp75
a(I104408
I51991
F222.6380009651184
tp76
asa(dp77
g2
(lp78
sg4
(lp79
sg6
(lp80
sg8
(lp81
(I556
I230
F1.7812299728393555
tp82
a(I1600
I568
F4.389994144439697
tp83
a(I2040
I788
F5.120557069778442
tp84
a(I2934
I1235
F7.1631691455841064
tp85
a(I5300
I2418
F14.970015048980713
tp86
a(I17060
I8298
F49.965370893478394
tp87
a(I61548
I30542
F166.96695494651794
tp88
asa(dp89
g2
(lp90
sg4
(lp91
sg6
(lp92
sg8
(lp93
(I1252
I553
F4.076329946517944
tp94
a(I3654
I1423
F8.261718988418579
tp95
a(I4810
I2001
F9.277514934539795
tp96
a(I7162
I3177
F15.936782121658325
tp97
a(I13460
I6326
F28.084070920944214
tp98
a(I45114
I22153
F94.58689904212952
tp99
a(I165738
I82465
F323.46231508255005
tp100
asa(dp101
g2
(lp102
sg4
(lp103
sg6
(lp104
sg8
(lp105
(I1176
I548
F1.9425339698791504
tp106
a(I3600
I1411
F5.616281986236572
tp107
a(I4752
I1987
F7.741468191146851
tp108
a(I7098
I3160
F10.687350988388062
tp109
a(I13392
I6307
F22.440746068954468
tp110
a(I45116
I22169
F75.8052179813385
tp111
a(I166328
I82775
F216.98815083503723
tp112
asa(dp113
g2
(lp114
sg4
(lp115
sg6
(lp116
sg8
(lp117
(I1236
I557
F1.70986008644104
tp118
a(I3664
I1428
F4.539392948150635
tp119
a(I4822
I2007
F5.8017048835754395
tp120
a(I7178
I3185
F8.381277084350586
tp121
a(I13498
I6345
F16.61302900314331
tp122
a(I45290
I22241
F57.89690589904785
tp123
a(I166642
I82917
F218.69322800636292
tp124
asa.