(lp0
(dp1
S'karakosta'
p2
(lp3
(I14028
I7013
F2.7930688858032227
tp4
a(I18976
I9487
F10.201706171035767
tp5
a(I16630
I8314
F17.856691122055054
tp6
asS'vanilla'
p7
(lp8
(I27351
I555
F1.036534070968628
tp9
a(I54734
I1122
F0.958575963973999
tp10
a(I30362
I319
F0.3953430652618408
tp11
asS'beta'
p12
(lp13
(I43164
I6925
F0.8638269901275635
tp14
a(I113208
I9343
F1.7322490215301514
tp15
a(I124555
I8260
F1.2345209121704102
tp16
asS'two_approx'
p17
(lp18
(NNF1.6927719116210938e-05
tp19
a(NNF1.6927719116210938e-05
tp20
a(NNF2.7894973754882812e-05
tp21
asa(dp22
g2
(lp23
(I10752
I5375
F1.6538519859313965
tp24
a(I19674
I9836
F10.55222201347351
tp25
a(I22586
I11292
F24.04645609855652
tp26
asg7
(lp27
(I14902
I449
F0.22777485847473145
tp28
a(I23586
I301
F0.33934903144836426
tp29
a(I52016
I544
F0.7883431911468506
tp30
asg12
(lp31
(I32902
I5366
F0.5403380393981934
tp32
a(I98039
I9790
F1.3071558475494385
tp33
a(I176462
I11215
F2.2251760959625244
tp34
asg17
(lp35
(NNF1.6927719116210938e-05
tp36
a(NNF2.4080276489257812e-05
tp37
a(NNF2.3126602172851562e-05
tp38
asa(dp39
g2
(lp40
(I17634
I8816
F2.43727707862854
tp41
a(I13886
I6942
F7.340843915939331
tp42
a(I27506
I13752
F27.6186580657959
tp43
asg7
(lp44
(I41339
I2078
F0.5662798881530762
tp45
a(I29181
I373
F0.31715822219848633
tp46
a(I56758
I492
F0.6294820308685303
tp47
asg12
(lp48
(I58468
I8816
F0.8005290031433105
tp49
a(I71999
I6801
F0.8139100074768066
tp50
a(I213467
I13728
F2.242380142211914
tp51
asg17
(lp52
(NNF1.811981201171875e-05
tp53
a(NNF1.811981201171875e-05
tp54
a(NNF1.6927719116210938e-05
tp55
asa(dp56
g2
(lp57
(I16994
I8496
F2.794603109359741
tp58
a(I18134
I9066
F8.518860101699829
tp59
a(I13114
I6556
F15.624767065048218
tp60
asg7
(lp61
(I47077
I1646
F0.7249789237976074
tp62
a(I45455
I710
F0.5693709850311279
tp63
a(I34261
I292
F0.40019702911376953
tp64
asg12
(lp65
(I68447
I8414
F1.0089070796966553
tp66
a(I102161
I9042
F1.312525987625122
tp67
a(I95994
I6364
F1.0730950832366943
tp68
asg17
(lp69
(NNF2.3126602172851562e-05
tp70
a(NNF1.6927719116210938e-05
tp71
a(NNF1.6927719116210938e-05
tp72
asa(dp73
g2
(lp74
(I17076
I8537
F2.7146880626678467
tp75
a(I14540
I7269
F8.220600128173828
tp76
a(I7626
I3812
F7.564007043838501
tp77
asg7
(lp78
(I32750
I897
F0.46536898612976074
tp79
a(I29262
I691
F0.4106731414794922
tp80
a(I4116
I20
F0.03979897499084473
tp81
asg12
(lp82
(I56360
I8509
F0.8476700782775879
tp83
a(I77206
I7086
F1.0184738636016846
tp84
a(I56805
I3786
F0.48463892936706543
tp85
asg17
(lp86
(NNF1.71661376953125e-05
tp87
a(NNF1.7881393432617188e-05
tp88
a(NNF1.9073486328125e-05
tp89
asa(dp90
g2
(lp91
(I17674
I8836
F2.653114080429077
tp92
a(I19552
I9775
F9.675604820251465
tp93
a(I21664
I10831
F23.56889796257019
tp94
asg7
(lp95
(I20658
I626
F0.29086995124816895
tp96
a(I31314
I441
F0.35770201683044434
tp97
a(I46640
I488
F0.5948560237884521
tp98
asg12
(lp99
(I46587
I8823
F0.6910989284515381
tp100
a(I98859
I9722
F1.1306109428405762
tp101
a(I167938
I10771
F1.9666330814361572
tp102
asg17
(lp103
(NNF1.9073486328125e-05
tp104
a(NNF1.9073486328125e-05
tp105
a(NNF1.7881393432617188e-05
tp106
asa(dp107
g2
(lp108
(I10654
I5326
F1.549530029296875
tp109
a(I13814
I6906
F7.409128904342651
tp110
a(I13560
I6779
F14.830321073532104
tp111
asg7
(lp112
(I23356
I827
F0.2799718379974365
tp113
a(I51037
I723
F0.6871130466461182
tp114
a(I21922
I199
F0.23098397254943848
tp115
asg12
(lp116
(I35087
I5213
F0.475679874420166
tp117
a(I82395
I6611
F1.195991039276123
tp118
a(I100260
I6683
F1.0458710193634033
tp119
asg17
(lp120
(NNF1.71661376953125e-05
tp121
a(NNF1.6927719116210938e-05
tp122
a(NNF1.7881393432617188e-05
tp123
asa(dp124
g2
(lp125
(I11714
I5856
F1.827362060546875
tp126
a(I15804
I7901
F8.512586832046509
tp127
a(I14688
I7343
F17.48557710647583
tp128
asg7
(lp129
(I31831
I723
F0.4252779483795166
tp130
a(I40089
I863
F0.42571592330932617
tp131
a(I30766
I231
F0.37331414222717285
tp132
asg12
(lp133
(I44400
I5835
F0.6657891273498535
tp134
a(I80793
I7794
F1.0417580604553223
tp135
a(I107940
I7195
F1.2987959384918213
tp136
asg17
(lp137
(NNF1.7881393432617188e-05
tp138
a(NNF1.6927719116210938e-05
tp139
a(NNF1.9073486328125e-05
tp140
asa(dp141
g2
(lp142
(I12190
I6094
F1.8612940311431885
tp143
a(I12600
I6299
F6.769182920455933
tp144
a(I12024
I6011
F12.645466089248657
tp145
asg7
(lp146
(I46342
I1915
F0.5565450191497803
tp147
a(I30979
I514
F0.41305994987487793
tp148
a(I9080
I104
F0.10970401763916016
tp149
asg12
(lp150
(I59575
I5944
F0.7505462169647217
tp151
a(I65773
I6074
F0.904494047164917
tp152
a(I89430
I5961
F0.8664560317993164
tp153
asg17
(lp154
(NNF2.9802322387695312e-05
tp155
a(NNF2.47955322265625e-05
tp156
a(NNF1.7881393432617188e-05
tp157
asa.