(lp0
(dp1
S'karakosta'
p2
(lp3
(I16198
I8098
F14.123260021209717
tp4
a(I30416
I15207
F69.52435302734375
tp5
a(I48446
I24222
F198.581796169281
tp6
asS'vanilla'
p7
(lp8
(I29025
I719
F8.206687927246094
tp9
a(I70904
I839
F16.74379301071167
tp10
a(I104571
I723
F19.637686014175415
tp11
asS'beta'
p12
(lp13
(I46733
I7898
F14.773428916931152
tp14
a(I161354
I15073
F37.90176510810852
tp15
a(I359265
I23950
F79.47244215011597
tp16
asS'two_approx'
p17
(lp18
(NNF6.914138793945312e-05
tp19
a(NNF2.4080276489257812e-05
tp20
a(NNF2.4080276489257812e-05
tp21
asa(dp22
g2
(lp23
(I16230
I8114
F15.026588916778564
tp24
a(I44386
I22192
F116.5674409866333
tp25
a(I51960
I25979
F212.39392685890198
tp26
asg7
(lp27
(I44406
I817
F9.41641616821289
tp28
a(I101131
I1447
F26.907949924468994
tp29
a(I41496
I306
F9.161169052124023
tp30
asg12
(lp31
(I67067
I7978
F14.75078296661377
tp32
a(I255339
I22155
F73.33354115486145
tp33
a(I388800
I25919
F91.29646587371826
tp34
asg17
(lp35
(NNF1.9073486328125e-05
tp36
a(NNF1.9073486328125e-05
tp37
a(NNF2.9087066650390625e-05
tp38
asa(dp39
g2
(lp40
(I28590
I14294
F21.499228954315186
tp41
a(I18762
I9380
F46.57305097579956
tp42
a(I27550
I13774
F122.01601910591125
tp43
asg7
(lp44
(I27969
I578
F8.240919828414917
tp45
a(I21884
I288
F3.8778040409088135
tp46
a(I78293
I686
F11.934704065322876
tp47
asg12
(lp48
(I73049
I14291
F23.634948015213013
tp49
a(I93050
I9304
F18.72774600982666
tp50
a(I206400
I13545
F35.6088650226593
tp51
asg17
(lp52
(NNF2.002716064453125e-05
tp53
a(NNF2.09808349609375e-05
tp54
a(NNF1.9073486328125e-05
tp55
asa(dp56
g2
(lp57
(I28648
I14323
F26.574953079223633
tp58
a(I25596
I12797
F62.58655118942261
tp59
a(I55528
I27763
F218.59036493301392
tp60
asg7
(lp61
(I66330
I1824
F19.270902156829834
tp62
a(I68719
I664
F15.653932094573975
tp63
a(I51352
I465
F12.55451512336731
tp64
asg12
(lp65
(I101963
I14267
F34.49222803115845
tp66
a(I144100
I12526
F32.129369020462036
tp67
a(I416460
I27763
F99.15023493766785
tp68
asg17
(lp69
(NNF2.5033950805664062e-05
tp70
a(NNF2.09808349609375e-05
tp71
a(NNF2.288818359375e-05
tp72
asa(dp73
g2
(lp74
(I12564
I6281
F12.070605039596558
tp75
a(I18214
I9106
F42.94971799850464
tp76
a(I55574
I27786
F239.84234380722046
tp77
asg7
(lp78
(I27761
I585
F6.493497848510742
tp79
a(I33561
I349
F6.532197952270508
tp80
a(I57475
I398
F14.852165937423706
tp81
asg12
(lp82
(I42420
I6136
F11.57857608795166
tp83
a(I88720
I8871
F17.234086990356445
tp84
a(I416805
I27786
F121.06894898414612
tp85
asg17
(lp86
(NNF1.7881393432617188e-05
tp87
a(NNF2.002716064453125e-05
tp88
a(NNF2.8133392333984375e-05
tp89
asa(dp90
g2
(lp91
(I25096
I12547
F20.705811977386475
tp92
a(I44340
I22169
F88.52322006225586
tp93
a(I25242
I12620
F106.25773191452026
tp94
asg7
(lp95
(I24242
I716
F5.6883180141448975
tp96
a(I33976
I390
F9.143290042877197
tp97
a(I86862
I645
F16.01420307159424
tp98
asg12
(lp99
(I68081
I12506
F16.02279496192932
tp100
a(I221700
I22169
F53.882189989089966
tp101
a(I202056
I12212
F40.666090965270996
tp102
asg17
(lp103
(NNF2.6941299438476562e-05
tp104
a(NNF3.0994415283203125e-05
tp105
a(NNF2.6941299438476562e-05
tp106
asa(dp107
g2
(lp108
(I28648
I14323
F24.921805143356323
tp109
a(I18188
I9093
F40.44495415687561
tp110
a(I42238
I21118
F192.39985704421997
tp111
asg7
(lp112
(I42723
I652
F11.324882984161377
tp113
a(I45231
I547
F10.088583946228027
tp114
a(I108327
I714
F24.121279001235962
tp115
asg12
(lp116
(I82397
I14306
F25.965539932250977
tp117
a(I97974
I8862
F24.193533182144165
tp118
a(I319952
I20863
F79.93983292579651
tp119
asg17
(lp120
(NNF3.314018249511719e-05
tp121
a(NNF4.00543212890625e-05
tp122
a(NNF2.8133392333984375e-05
tp123
asa(dp124
g2
(lp125
(I28388
I14193
F31.281697034835815
tp126
a(I41410
I20704
F88.40750908851624
tp127
a(I29494
I14746
F131.86911702156067
tp128
asg7
(lp129
(I135219
I4078
F39.57025980949402
tp130
a(I50220
I816
F9.731206893920898
tp131
a(I102365
I753
F20.539716005325317
tp132
asg12
(lp133
(I166216
I13911
F52.77815580368042
tp134
a(I210351
I20600
F45.33698105812073
tp135
a(I238041
I14493
F44.60813808441162
tp136
asg17
(lp137
(NNF1.8835067749023438e-05
tp138
a(NNF2.002716064453125e-05
tp139
a(NNF2.9802322387695312e-05
tp140
asa(dp141
g2
(lp142
(I28734
I14366
F22.823201894760132
tp143
a(I20336
I10167
F50.49790716171265
tp144
a(I29788
I14893
F146.3370201587677
tp145
asg7
(lp146
(I90542
I3883
F25.877980947494507
tp147
a(I72288
I569
F10.675294876098633
tp148
a(I71768
I526
F14.220708847045898
tp149
asg12
(lp150
(I123923
I14210
F34.58917498588562
tp151
a(I113841
I9949
F20.764726877212524
tp152
a(I226031
I14724
F55.598068952560425
tp153
asg17
(lp154
(NNF3.0040740966796875e-05
tp155
a(NNF3.600120544433594e-05
tp156
a(NNF2.09808349609375e-05
tp157
asa(dp158
g2
(lp159
(I28650
I14324
F26.405924081802368
tp160
a(I13844
I6921
F32.73811101913452
tp161
a(I27230
I13614
F115.91279196739197
tp162
asg7
(lp163
(I47576
I705
F12.68503713607788
tp164
a(I36103
I360
F9.051132917404175
tp165
a(I47185
I496
F11.52659296989441
tp166
asg12
(lp167
(I81208
I14306
F24.763175010681152
tp168
a(I75050
I6765
F16.487087965011597
tp169
a(I203324
I13489
F46.06851100921631
tp170
asg17
(lp171
(NNF2.2172927856445312e-05
tp172
a(NNF2.5033950805664062e-05
tp173
a(NNF2.09808349609375e-05
tp174
asa.