(lp0
(dp1
S'karakosta'
p2
(lp3
(I11516
I11515
F80.78352999687195
tp4
a(I21670
I10834
F52.42941093444824
tp5
a(I62982
I20993
F73.3993330001831
tp6
a(I221700
I22169
F77.44903898239136
tp7
asS'vanilla'
p8
(lp9
(I89620
I1425
F20.921987056732178
tp10
a(I83175
I874
F18.334618091583252
tp11
a(I77282
I783
F17.940649032592773
tp12
a(I33217
I510
F7.77081298828125
tp13
asS'beta'
p14
(lp15
(I154312
I10857
F30.972672939300537
tp16
a(I135722
I10595
F31.340364933013916
tp17
a(I210364
I20794
F44.860113859176636
tp18
a(I221700
I22169
F58.1922869682312
tp19
asS'two_approx'
p20
(lp21
(NNF1.9073486328125e-05
tp22
a(NNF1.5974044799804688e-05
tp23
a(NNF2.5033950805664062e-05
tp24
a(NNF1.8835067749023438e-05
tp25
asa(dp26
g2
(lp27
(I5786
I5785
F47.51013207435608
tp28
a(I20164
I10081
F45.63006401062012
tp29
a(I40683
I13560
F46.019773960113525
tp30
a(I221700
I22169
F78.57031393051147
tp31
asg8
(lp32
(I28925
I263
F3.9547479152679443
tp33
a(I34495
I333
F7.110647916793823
tp34
a(I62328
I781
F14.512541055679321
tp35
a(I47030
I529
F12.017397165298462
tp36
asg14
(lp37
(I58505
I5621
F8.506744861602783
tp38
a(I99370
I9936
F21.993646144866943
tp39
a(I152093
I13459
F43.78880596160889
tp40
a(I221700
I22169
F67.37173891067505
tp41
asg20
(lp42
(NNF2.002716064453125e-05
tp43
a(NNF2.4080276489257812e-05
tp44
a(NNF2.4080276489257812e-05
tp45
a(NNF2.002716064453125e-05
tp46
asa(dp47
g2
(lp48
(I8100
I8099
F58.741137981414795
tp49
a(I43528
I21763
F105.71213912963867
tp50
a(I61299
I20432
F84.67060708999634
tp51
a(I221700
I22169
F82.80096006393433
tp52
asg8
(lp53
(I40725
I557
F8.183972835540771
tp54
a(I113016
I1068
F30.164634227752686
tp55
a(I127960
I1347
F38.47395896911621
tp56
a(I87880
I939
F25.177735805511475
tp57
asg14
(lp58
(I88326
I7851
F15.548998832702637
tp59
a(I243089
I21596
F60.92640709877014
tp60
a(I236489
I20158
F75.2720251083374
tp61
a(I229810
I22169
F69.60762190818787
tp62
asg20
(lp63
(NNF2.5033950805664062e-05
tp64
a(NNF2.384185791015625e-05
tp65
a(NNF2.193450927734375e-05
tp66
a(NNF2.002716064453125e-05
tp67
asa(dp68
g2
(lp69
(I11179
I11178
F90.4487738609314
tp70
a(I40408
I20203
F107.76362705230713
tp71
a(I50328
I16775
F61.3219530582428
tp72
a(I221700
I22169
F82.90844082832336
tp73
asg8
(lp74
(I32270
I331
F5.82038688659668
tp75
a(I106032
I1446
F27.61687684059143
tp76
a(I34547
I519
F6.075747013092041
tp77
a(I48783
I554
F17.141819953918457
tp78
asg14
(lp79
(I110130
I11012
F23.230581045150757
tp80
a(I233261
I19900
F61.673654079437256
tp81
a(I171271
I16739
F43.753746032714844
tp82
a(I221700
I22169
F63.402671098709106
tp83
asg20
(lp84
(NNF0.00023889541625976562
tp85
a(NNF3.814697265625e-05
tp86
a(NNF2.002716064453125e-05
tp87
a(NNF2.288818359375e-05
tp88
asa(dp89
g2
(lp90
(I12163
I12162
F88.08428001403809
tp91
a(I44340
I22169
F97.95067596435547
tp92
a(I56043
I18680
F59.95779299736023
tp93
a(I221700
I22169
F80.98061180114746
tp94
asg8
(lp95
(I33336
I361
F5.048421144485474
tp96
a(I121585
I1085
F31.798996925354004
tp97
a(I137910
I1571
F32.796268939971924
tp98
a(I91891
I1176
F21.64660406112671
tp99
asg14
(lp100
(I119960
I11995
F21.40858817100525
tp101
a(I254337
I22163
F66.77992510795593
tp102
a(I222793
I18532
F53.0593159198761
tp103
a(I234025
I22169
F58.33218312263489
tp104
asg20
(lp105
(NNF2.7894973754882812e-05
tp106
a(NNF2.288818359375e-05
tp107
a(NNF1.8835067749023438e-05
tp108
a(NNF1.9073486328125e-05
tp109
asa(dp110
g2
(lp111
(I4965
I4964
F33.26306486129761
tp112
a(I28050
I14024
F59.52374315261841
tp113
a(I51111
I17036
F64.84339785575867
tp114
a(I221580
I22157
F87.76044201850891
tp115
asg8
(lp116
(I30675
I313
F5.291867017745972
tp117
a(I55604
I594
F10.251455068588257
tp118
a(I95670
I1016
F24.476562023162842
tp119
a(I159763
I2259
F49.86372399330139
tp120
asg14
(lp121
(I52910
I4795
F9.880584955215454
tp122
a(I142821
I13939
F26.098047018051147
tp123
a(I200862
I16945
F53.58095908164978
tp124
a(I290591
I22157
F87.32539391517639
tp125
asg20
(lp126
(NNF1.811981201171875e-05
tp127
a(NNF2.2172927856445312e-05
tp128
a(NNF2.5987625122070312e-05
tp129
a(NNF2.09808349609375e-05
tp130
asa(dp131
g2
(lp132
(I7185
I7184
F48.81847286224365
tp133
a(I33286
I16642
F76.73089408874512
tp134
a(I41832
I13943
F53.53164100646973
tp135
a(I220820
I22081
F81.58674716949463
tp136
asg8
(lp137
(I38392
I773
F7.4424049854278564
tp138
a(I78976
I808
F18.08604097366333
tp139
a(I33757
I352
F8.830788850784302
tp140
a(I129155
I1258
F36.70283794403076
tp141
asg14
(lp142
(I77923
I6939
F13.945808172225952
tp143
a(I177384
I16436
F45.46198606491089
tp144
a(I139187
I13906
F37.64623284339905
tp145
a(I251714
I22080
F71.62159490585327
tp146
asg20
(lp147
(NNF2.5033950805664062e-05
tp148
a(NNF2.5033950805664062e-05
tp149
a(NNF3.0040740966796875e-05
tp150
a(NNF2.5987625122070312e-05
tp151
asa(dp152
g2
(lp153
(I7364
I7363
F59.700892210006714
tp154
a(I13774
I6886
F32.05135893821716
tp155
a(I34290
I11429
F41.15059685707092
tp156
a(I221900
I22189
F81.46350812911987
tp157
asg8
(lp158
(I52350
I428
F7.305445909500122
tp159
a(I28278
I222
F6.116177797317505
tp160
a(I41678
I414
F10.276103019714355
tp161
a(I66580
I706
F18.641613960266113
tp162
asg14
(lp163
(I97183
I6952
F18.176481008529663
tp164
a(I68070
I6806
F15.855756998062134
tp165
a(I113660
I11365
F30.001622915267944
tp166
a(I221900
I22189
F60.44965386390686
tp167
asg20
(lp168
(NNF3.409385681152344e-05
tp169
a(NNF2.2172927856445312e-05
tp170
a(NNF2.193450927734375e-05
tp171
a(NNF2.6941299438476562e-05
tp172
asa(dp173
g2
(lp174
(I17663
I17662
F123.77067112922668
tp175
a(I44156
I22077
F77.25051617622375
tp176
a(I39975
I13324
F36.913986921310425
tp177
a(I151390
I15138
F41.388927936553955
tp178
asg8
(lp179
(I89149
I813
F22.831448078155518
tp180
a(I84154
I904
F17.06272006034851
tp181
a(I63879
I553
F12.30807614326477
tp182
a(I95122
I1205
F23.387151956558228
tp183
asg14
(lp184
(I184983
I17175
F45.85343599319458
tp185
a(I229026
I21808
F45.139384031295776
tp186
a(I134482
I13251
F26.886162996292114
tp187
a(I178565
I15139
F39.52830100059509
tp188
asg20
(lp189
(NNF1.9073486328125e-05
tp190
a(NNF3.910064697265625e-05
tp191
a(NNF2.2172927856445312e-05
tp192
a(NNF2.7894973754882812e-05
tp193
asa(dp194
g2
(lp195
(I9205
I9204
F50.678126096725464
tp196
a(I44340
I22169
F72.42747712135315
tp197
a(I29574
I9857
F29.656566858291626
tp198
a(I221440
I22143
F64.01871013641357
tp199
asg8
(lp200
(I39165
I331
F4.847592830657959
tp201
a(I36251
I290
F8.70094108581543
tp202
a(I61847
I808
F12.844295024871826
tp203
a(I131341
I1578
F29.285691022872925
tp204
asg14
(lp205
(I88750
I8874
F14.705833196640015
tp206
a(I221700
I22169
F44.07518410682678
tp207
a(I117525
I9716
F26.979995012283325
tp208
a(I254804
I22143
F59.71753787994385
tp209
asg20
(lp210
(NNF2.09808349609375e-05
tp211
a(NNF2.002716064453125e-05
tp212
a(NNF4.00543212890625e-05
tp213
a(NNF2.09808349609375e-05
tp214
asa.