(lp0
(dp1
S'karakosta'
p2
(lp3
(I20302
I10150
F32.619044065475464
tp4
a(I22426
I11212
F50.42184090614319
tp5
a(I20230
I10114
F51.5224928855896
tp6
a(I49442
I24720
F141.8301019668579
tp7
asS'vanilla'
p8
(lp9
(I62662
I762
F7.40402889251709
tp10
a(I47795
I529
F9.988919019699097
tp11
a(I47087
I503
F18.052616834640503
tp12
a(I28297
I302
F18.957075834274292
tp13
asS'beta'
p14
(lp15
(I113592
I9880
F14.430322885513306
tp16
a(I121876
I10994
F26.902191877365112
tp17
a(I106078
I10037
F39.81698203086853
tp18
a(I247210
I24720
F163.81960010528564
tp19
asS'two_approx'
p20
(lp21
(NNF2.6941299438476562e-05
tp22
a(NNF4.100799560546875e-05
tp23
a(NNF1.9073486328125e-05
tp24
a(NNF3.409385681152344e-05
tp25
asa(dp26
g2
(lp27
(I39236
I19617
F67.23518395423889
tp28
a(I28150
I14074
F61.493189096450806
tp29
a(I47376
I23687
F135.55325722694397
tp30
a(I49442
I24720
F162.19977807998657
tp31
asg8
(lp32
(I35435
I262
F3.278715133666992
tp33
a(I53418
I615
F17.387938976287842
tp34
a(I90823
I991
F36.524336099624634
tp35
a(I79579
I968
F48.35996389389038
tp36
asg14
(lp37
(I196180
I19617
F23.010608196258545
tp38
a(I143293
I14038
F36.90590190887451
tp39
a(I248526
I23671
F106.42169904708862
tp40
a(I259624
I24720
F178.0589520931244
tp41
asg20
(lp42
(NNF1.9073486328125e-05
tp43
a(NNF2.09808349609375e-05
tp44
a(NNF4.100799560546875e-05
tp45
a(NNF3.314018249511719e-05
tp46
asa(dp47
g2
(lp48
(I17254
I8626
F30.094281911849976
tp49
a(I29172
I14585
F74.2556540966034
tp50
a(I47380
I23689
F135.9699409008026
tp51
a(I49442
I24720
F170.19033002853394
tp52
asg8
(lp53
(I19058
I280
F2.1186630725860596
tp54
a(I69689
I857
F17.478167057037354
tp55
a(I132341
I2326
F62.36642003059387
tp56
a(I44967
I374
F24.99214220046997
tp57
asg14
(lp58
(I85580
I8557
F9.280421018600464
tp59
a(I151602
I14497
F38.89523196220398
tp60
a(I289024
I23643
F131.26988697052002
tp61
a(I247210
I24720
F151.78321290016174
tp62
asg20
(lp63
(NNF1.6927719116210938e-05
tp64
a(NNF2.384185791015625e-05
tp65
a(NNF2.193450927734375e-05
tp66
a(NNF1.8835067749023438e-05
tp67
asa(dp68
g2
(lp69
(I28282
I14140
F42.911715030670166
tp70
a(I20040
I10019
F39.43768310546875
tp71
a(I28912
I14455
F86.28555202484131
tp72
a(I37748
I18873
F123.1135458946228
tp73
asg8
(lp74
(I69672
I810
F7.091015100479126
tp75
a(I32339
I415
F8.742891073226929
tp76
a(I63529
I572
F26.561760902404785
tp77
a(I91409
I811
F47.627005100250244
tp78
asg14
(lp79
(I150708
I13962
F14.226556062698364
tp80
a(I99480
I9947
F26.673102140426636
tp81
a(I145209
I14274
F62.359468936920166
tp82
a(I197455
I18566
F119.95184707641602
tp83
asg20
(lp84
(NNF2.09808349609375e-05
tp85
a(NNF2.002716064453125e-05
tp86
a(NNF3.0040740966796875e-05
tp87
a(NNF1.71661376953125e-05
tp88
asa(dp89
g2
(lp90
(I28032
I14015
F54.21048712730408
tp91
a(I44340
I22169
F100.34122610092163
tp92
a(I14740
I7369
F48.34522008895874
tp93
a(I49442
I24720
F168.71970009803772
tp94
asg8
(lp95
(I91038
I1147
F9.199022054672241
tp96
a(I77590
I877
F24.79618000984192
tp97
a(I47450
I330
F19.599531173706055
tp98
a(I87555
I1287
F56.19335985183716
tp99
asg14
(lp100
(I176189
I13788
F19.777525901794434
tp101
a(I232477
I22169
F72.22830486297607
tp102
a(I90249
I7203
F41.46209406852722
tp103
a(I259894
I24720
F176.8937840461731
tp104
asg20
(lp105
(NNF4.1961669921875e-05
tp106
a(NNF1.9073486328125e-05
tp107
a(NNF2.7894973754882812e-05
tp108
a(NNF2.5987625122070312e-05
tp109
asa(dp110
g2
(lp111
(I33618
I16808
F49.85433006286621
tp112
a(I44340
I22169
F101.26066279411316
tp113
a(I30010
I15004
F88.8909559249878
tp114
a(I23250
I11624
F58.01124405860901
tp115
asg8
(lp116
(I54806
I950
F7.351535081863403
tp117
a(I48682
I605
F13.114080905914307
tp118
a(I118530
I1315
F50.505462884902954
tp119
a(I53467
I516
F29.606035947799683
tp120
asg14
(lp121
(I173656
I16713
F17.21491503715515
tp122
a(I221700
I22169
F67.54716396331787
tp123
a(I189625
I14762
F85.00784206390381
tp124
a(I120627
I11467
F60.155336141586304
tp125
asg20
(lp126
(NNF2.8848648071289062e-05
tp127
a(NNF2.1219253540039062e-05
tp128
a(NNF2.5987625122070312e-05
tp129
a(NNF1.9073486328125e-05
tp130
asa(dp131
g2
(lp132
(I21176
I10587
F24.097819089889526
tp133
a(I30632
I15315
F52.925132036209106
tp134
a(I25760
I12879
F55.01719903945923
tp135
a(I18102
I9050
F46.93698501586914
tp136
asg8
(lp137
(I67642
I790
F5.038476943969727
tp138
a(I29157
I318
F5.998100996017456
tp139
a(I73948
I863
F22.960460901260376
tp140
a(I51088
I366
F27.35042095184326
tp141
asg14
(lp142
(I130288
I10410
F9.78877305984497
tp143
a(I153160
I15315
F28.676403045654297
tp144
a(I136373
I12555
F42.173288106918335
tp145
a(I93636
I8963
F46.32903790473938
tp146
asg20
(lp147
(NNF2.5987625122070312e-05
tp148
a(NNF1.811981201171875e-05
tp149
a(NNF2.8133392333984375e-05
tp150
a(NNF2.002716064453125e-05
tp151
asa(dp152
g2
(lp153
(I33718
I16858
F41.12157893180847
tp154
a(I44340
I22169
F69.52331185340881
tp155
a(I47324
I23661
F99.40908885002136
tp156
a(I23056
I11527
F47.82460308074951
tp157
asg8
(lp158
(I62961
I739
F5.457690954208374
tp159
a(I54917
I726
F13.086754083633423
tp160
a(I83725
I1015
F33.73798203468323
tp161
a(I20406
I209
F7.635643005371094
tp162
asg14
(lp163
(I175226
I16662
F16.841870069503784
tp164
a(I221700
I22169
F49.75326085090637
tp165
a(I246703
I23656
F87.91523599624634
tp166
a(I114450
I11444
F41.04992699623108
tp167
asg20
(lp168
(NNF3.1948089599609375e-05
tp169
a(NNF2.6941299438476562e-05
tp170
a(NNF2.6941299438476562e-05
tp171
a(NNF2.288818359375e-05
tp172
asa(dp173
g2
(lp174
(I34798
I17398
F36.63678598403931
tp175
a(I44340
I22169
F62.34856200218201
tp176
a(I47324
I23661
F82.71053290367126
tp177
a(I46440
I23219
F106.19126915931702
tp178
asg8
(lp179
(I66392
I680
F5.026329040527344
tp180
a(I54140
I635
F8.561438083648682
tp181
a(I73396
I716
F19.257853984832764
tp182
a(I152937
I1741
F61.42822194099426
tp183
asg14
(lp184
(I178620
I17243
F13.119590997695923
tp185
a(I221700
I22169
F36.765382051467896
tp186
a(I241120
I23661
F66.41281318664551
tp187
a(I295528
I22744
F106.86312913894653
tp188
asg20
(lp189
(NNF2.002716064453125e-05
tp190
a(NNF2.09808349609375e-05
tp191
a(NNF2.002716064453125e-05
tp192
a(NNF1.811981201171875e-05
tp193
asa(dp194
g2
(lp195
(I13206
I6602
F11.998264074325562
tp196
a(I44390
I22194
F65.73533821105957
tp197
a(I47324
I23661
F84.8844358921051
tp198
a(I36838
I18418
F67.10792207717896
tp199
asg8
(lp200
(I8165
I58
F0.50649094581604
tp201
a(I111005
I1325
F18.758337020874023
tp202
a(I83560
I968
F20.00998306274414
tp203
a(I87275
I780
F33.006821155548096
tp204
asg14
(lp205
(I65340
I6533
F4.5507519245147705
tp206
a(I253287
I22158
F42.073331117630005
tp207
a(I243217
I23661
F63.74472689628601
tp208
a(I193502
I18299
F64.11502599716187
tp209
asg20
(lp210
(NNF2.5033950805664062e-05
tp211
a(NNF1.9073486328125e-05
tp212
a(NNF2.5987625122070312e-05
tp213
a(NNF1.811981201171875e-05
tp214
asa.