(lp0
(dp1
S'karakosta'
p2
(lp3
(I546
I272
F1.605726957321167
tp4
a(I1400
I699
F3.925895929336548
tp5
a(I1968
I983
F3.90853214263916
tp6
a(I3128
I1563
F5.734248161315918
tp7
a(I6236
I3117
F11.647564888000488
tp8
a(I21896
I10947
F40.57437705993652
tp9
a(I81714
I40856
F165.23119688034058
tp10
asS'vanilla'
p11
(lp12
(I401
I3
F0.5275371074676514
tp13
a(I6830
I682
F2.9950649738311768
tp14
a(I9640
I963
F2.465280055999756
tp15
a(I15390
I1538
F3.4292211532592773
tp16
a(I30830
I3082
F7.948872804641724
tp17
a(I108810
I10880
F27.239276885986328
tp18
a(I407270
I40726
F94.90113711357117
tp19
asS'beta'
p20
(lp21
(I2630
I262
F1.1575510501861572
tp22
a(I6830
I682
F1.9318530559539795
tp23
a(I9640
I963
F3.072108030319214
tp24
a(I15390
I1538
F4.1382081508636475
tp25
a(I30830
I3082
F8.468590021133423
tp26
a(I108810
I10880
F27.956993103027344
tp27
a(I407270
I40726
F92.22936201095581
tp28
asS'two_approx'
p29
(lp30
(NNF1.9788742065429688e-05
tp31
a(NNF1.7881393432617188e-05
tp32
a(NNF2.5033950805664062e-05
tp33
a(NNF2.384185791015625e-05
tp34
a(NNF1.8835067749023438e-05
tp35
a(NNF2.09808349609375e-05
tp36
a(NNF2.47955322265625e-05
tp37
asa(dp38
g2
(lp39
(I582
I290
F1.1217379570007324
tp40
a(I1480
I739
F3.080064058303833
tp41
a(I2078
I1038
F4.470172882080078
tp42
a(I3294
I1646
F6.87996506690979
tp43
a(I6548
I3273
F12.263370990753174
tp44
a(I22910
I11454
F47.21929097175598
tp45
a(I85320
I42659
F162.37840485572815
tp46
asg11
(lp47
(I528
I5
F0.22500395774841309
tp48
a(I7050
I704
F1.4784018993377686
tp49
a(I9970
I996
F2.6470978260040283
tp50
a(I15930
I1592
F4.151821851730347
tp51
a(I31980
I3197
F8.742274045944214
tp52
a(I113090
I11308
F26.331298828125
tp53
a(I423750
I42374
F106.62086009979248
tp54
asg20
(lp55
(I2700
I269
F0.6724178791046143
tp56
a(I7050
I704
F1.7504370212554932
tp57
a(I9970
I996
F2.2911369800567627
tp58
a(I15930
I1592
F4.383419036865234
tp59
a(I31980
I3197
F8.60528302192688
tp60
a(I113090
I11308
F29.894208908081055
tp61
a(I423750
I42374
F102.60584497451782
tp62
asg29
(lp63
(NNF2.002716064453125e-05
tp64
a(NNF2.002716064453125e-05
tp65
a(NNF1.9073486328125e-05
tp66
a(NNF2.8848648071289062e-05
tp67
a(NNF2.09808349609375e-05
tp68
a(NNF2.7894973754882812e-05
tp69
a(NNF3.0040740966796875e-05
tp70
asa(dp71
g2
(lp72
(I510
I254
F1.2967309951782227
tp73
a(I1290
I644
F2.840193033218384
tp74
a(I1808
I903
F4.105912923812866
tp75
a(I2860
I1429
F5.427505016326904
tp76
a(I5674
I2836
F11.546154022216797
tp77
a(I19798
I9898
F43.80909705162048
tp78
a(I73616
I36807
F158.16960096359253
tp79
asg11
(lp80
(I890
I11
F0.39504504203796387
tp81
a(I6199
I608
F1.5779218673706055
tp82
a(I8768
I859
F1.8839530944824219
tp83
a(I14078
I1374
F3.9515039920806885
tp84
a(I28380
I2757
F6.911911964416504
tp85
a(I101026
I9747
F24.717544078826904
tp86
a(I379897
I36513
F88.09411597251892
tp87
asg20
(lp88
(I2359
I232
F0.926724910736084
tp89
a(I6199
I608
F1.9730830192565918
tp90
a(I8768
I859
F1.8762059211730957
tp91
a(I14078
I1374
F4.67349910736084
tp92
a(I28380
I2757
F6.313050031661987
tp93
a(I101026
I9747
F23.567276000976562
tp94
a(I379897
I36513
F84.81960010528564
tp95
asg29
(lp96
(NNF2.6941299438476562e-05
tp97
a(NNF2.002716064453125e-05
tp98
a(NNF2.8848648071289062e-05
tp99
a(NNF2.002716064453125e-05
tp100
a(NNF1.7881393432617188e-05
tp101
a(NNF2.7894973754882812e-05
tp102
a(NNF2.6941299438476562e-05
tp103
asa(dp104
g2
(lp105
(I1098
I548
F2.117621898651123
tp106
a(I2824
I1411
F5.761445999145508
tp107
a(I3976
I1987
F9.36841106414795
tp108
a(I6322
I3160
F13.078248023986816
tp109
a(I12616
I6307
F27.461907148361206
tp110
a(I44340
I22169
F98.32880902290344
tp111
a(I165552
I82775
F372.53406500816345
tp112
asg11
(lp113
(I1000
I11
F0.2100069522857666
tp114
a(I10020
I1001
F3.538282871246338
tp115
a(I14120
I1411
F3.4540441036224365
tp116
a(I22480
I2247
F5.9381020069122314
tp117
a(I44920
I4491
F13.082924127578735
tp118
a(I158080
I15807
F41.48524022102356
tp119
a(I590730
I59072
F148.51089191436768
tp120
asg20
(lp121
(I5490
I548
F1.611469030380249
tp122
a(I14120
I1411
F4.3611650466918945
tp123
a(I19880
I1987
F5.459378004074097
tp124
a(I31610
I3160
F9.087735891342163
tp125
a(I63080
I6307
F18.572139024734497
tp126
a(I221700
I22169
F60.41385197639465
tp127
a(I827760
I82775
F200.80797505378723
tp128
asg29
(lp129
(NNF2.288818359375e-05
tp130
a(NNF3.0040740966796875e-05
tp131
a(NNF2.193450927734375e-05
tp132
a(NNF1.8835067749023438e-05
tp133
a(NNF1.9073486328125e-05
tp134
a(NNF2.4080276489257812e-05
tp135
a(NNF2.5033950805664062e-05
tp136
asa(dp137
g2
(lp138
(I640
I319
F1.0073399543762207
tp139
a(I1624
I811
F3.8061249256134033
tp140
a(I2276
I1137
F4.480017185211182
tp141
a(I3598
I1798
F7.921554803848267
tp142
a(I7136
I3567
F15.989557981491089
tp143
a(I24878
I12438
F52.851863861083984
tp144
a(I92456
I46227
F205.2272789478302
tp145
asg11
(lp146
(I1685
I24
F0.40518903732299805
tp147
a(I8830
I764
F2.2768139839172363
tp148
a(I12547
I1080
F3.7289998531341553
tp149
a(I20240
I1725
F5.162687063217163
tp150
a(I41324
I3461
F11.407972812652588
tp151
a(I148389
I12235
F35.53522610664368
tp152
a(I557777
I45829
F125.25732922554016
tp153
asg20
(lp154
(I3331
I292
F1.0739009380340576
tp155
a(I8830
I764
F2.4646859169006348
tp156
a(I12547
I1080
F3.18270206451416
tp157
a(I20240
I1725
F5.746426105499268
tp158
a(I41324
I3461
F11.531888008117676
tp159
a(I148389
I12235
F34.55924892425537
tp160
a(I557777
I45829
F127.23782205581665
tp161
asg29
(lp162
(NNF1.811981201171875e-05
tp163
a(NNF2.002716064453125e-05
tp164
a(NNF2.5987625122070312e-05
tp165
a(NNF2.9087066650390625e-05
tp166
a(NNF2.288818359375e-05
tp167
a(NNF2.2172927856445312e-05
tp168
a(NNF2.5987625122070312e-05
tp169
asa(dp170
g2
(lp171
(I1098
I548
F2.567167043685913
tp172
a(I2832
I1415
F5.987268924713135
tp173
a(I3986
I1992
F7.186864137649536
tp174
a(I6338
I3168
F13.689880132675171
tp175
a(I12642
I6320
F25.940463066101074
tp176
a(I44390
I22194
F107.44696402549744
tp177
a(I165650
I82824
F340.7083201408386
tp178
asg11
(lp179
(I3216
I38
F1.0432939529418945
tp180
a(I12899
I993
F4.240979909896851
tp181
a(I18287
I1404
F4.888115882873535
tp182
a(I29210
I2243
F8.11393117904663
tp183
a(I58232
I4490
F16.67889904975891
tp184
a(I205770
I15804
F54.96009111404419
tp185
a(I770900
I59061
F212.96456003189087
tp186
asg20
(lp187
(I6085
I536
F1.8621110916137695
tp188
a(I16049
I1402
F4.614280939102173
tp189
a(I22694
I1980
F6.905303001403809
tp190
a(I36087
I3155
F10.981531858444214
tp191
a(I72115
I6305
F21.427922010421753
tp192
a(I254496
I22163
F72.69586300849915
tp193
a(I952048
I82763
F277.32889890670776
tp194
asg29
(lp195
(NNF2.002716064453125e-05
tp196
a(NNF1.9073486328125e-05
tp197
a(NNF2.002716064453125e-05
tp198
a(NNF2.09808349609375e-05
tp199
a(NNF1.8835067749023438e-05
tp200
a(NNF1.8835067749023438e-05
tp201
a(NNF2.384185791015625e-05
tp202
asa(dp203
g2
(lp204
(I628
I313
F0.9073960781097412
tp205
a(I1614
I806
F2.4971730709075928
tp206
a(I2272
I1135
F4.565356969833374
tp207
a(I3612
I1805
F7.127646207809448
tp208
a(I7208
I3603
F13.184112071990967
tp209
a(I25332
I12665
F48.63147211074829
tp210
a(I94592
I47295
F167.8759241104126
tp211
asg11
(lp212
(I467
I6
F0.12902593612670898
tp213
a(I7890
I788
F1.3879609107971191
tp214
a(I11150
I1114
F2.029172897338867
tp215
a(I17790
I1778
F4.013015985488892
tp216
a(I35660
I3565
F6.676231861114502
tp217
a(I125960
I12595
F25.295295000076294
tp218
a(I471590
I47158
F81.7164740562439
tp219
asg20
(lp220
(I3030
I302
F0.6532309055328369
tp221
a(I7890
I788
F1.4064929485321045
tp222
a(I11150
I1114
F2.074450969696045
tp223
a(I17790
I1778
F3.4848220348358154
tp224
a(I35660
I3565
F6.5556418895721436
tp225
a(I125960
I12595
F24.33995485305786
tp226
a(I471590
I47158
F87.0855360031128
tp227
asg29
(lp228
(NNF2.193450927734375e-05
tp229
a(NNF5.2928924560546875e-05
tp230
a(NNF2.5987625122070312e-05
tp231
a(NNF2.5987625122070312e-05
tp232
a(NNF1.9073486328125e-05
tp233
a(NNF2.09808349609375e-05
tp234
a(NNF5.91278076171875e-05
tp235
asa(dp236
g2
(lp237
(I658
I328
F0.972599983215332
tp238
a(I1684
I841
F2.5937318801879883
tp239
a(I2364
I1181
F3.979862928390503
tp240
a(I3750
I1874
F6.182164907455444
tp241
a(I7466
I3732
F12.68489408493042
tp242
a(I26158
I13078
F44.67589092254639
tp243
a(I97506
I48752
F147.81904697418213
tp244
asg11
(lp245
(I356
I6
F0.0994870662689209
tp246
a(I4210
I420
F0.7800099849700928
tp247
a(I5930
I592
F1.0554020404815674
tp248
a(I9460
I945
F1.6730890274047852
tp249
a(I18930
I1892
F4.313283920288086
tp250
a(I66730
I6672
F13.627299070358276
tp251
a(I249630
I24962
F41.919692039489746
tp252
asg20
(lp253
(I3200
I319
F0.6111881732940674
tp254
a(I8320
I831
F1.8279612064361572
tp255
a(I11710
I1170
F2.219230890274048
tp256
a(I18610
I1860
F3.6402089595794678
tp257
a(I37130
I3712
F6.346423864364624
tp258
a(I130420
I13041
F24.827229022979736
tp259
a(I486800
I48679
F70.51222801208496
tp260
asg29
(lp261
(NNF2.3126602172851562e-05
tp262
a(NNF2.09808349609375e-05
tp263
a(NNF2.09808349609375e-05
tp264
a(NNF2.5033950805664062e-05
tp265
a(NNF2.09808349609375e-05
tp266
a(NNF2.002716064453125e-05
tp267
a(NNF1.9073486328125e-05
tp268
asa(dp269
g2
(lp270
(I1034
I516
F1.3192219734191895
tp271
a(I2660
I1329
F3.263644218444824
tp272
a(I3738
I1868
F4.873010873794556
tp273
a(I5938
I2968
F7.424728155136108
tp274
a(I11834
I5916
F15.201517105102539
tp275
a(I41506
I20752
F55.728792905807495
tp276
a(I154800
I77399
F217.84494590759277
tp277
asg11
(lp278
(I1683
I17
F0.2882101535797119
tp279
a(I9937
I894
F2.1082139015197754
tp280
a(I14129
I1263
F2.3813819885253906
tp281
a(I22940
I2017
F3.751554012298584
tp282
a(I46705
I4045
F7.440278053283691
tp283
a(I165152
I14288
F24.609621047973633
tp284
a(I616021
I53495
F80.08397102355957
tp285
asg20
(lp286
(I5276
I504
F0.8791310787200928
tp287
a(I13690
I1306
F2.435460090637207
tp288
a(I19396
I1841
F3.2036070823669434
tp289
a(I31219
I2933
F5.042156934738159
tp290
a(I62964
I5865
F10.13515591621399
tp291
a(I219612
I20656
F32.42920899391174
tp292
a(I816592
I77210
F111.81411814689636
tp293
asg29
(lp294
(NNF2.6941299438476562e-05
tp295
a(NNF2.193450927734375e-05
tp296
a(NNF2.002716064453125e-05
tp297
a(NNF2.002716064453125e-05
tp298
a(NNF2.09808349609375e-05
tp299
a(NNF1.9073486328125e-05
tp300
a(NNF1.7881393432617188e-05
tp301
asa(dp302
g2
(lp303
(I434
I216
F0.5221779346466064
tp304
a(I1094
I546
F1.3728070259094238
tp305
a(I1530
I764
F1.970088005065918
tp306
a(I2414
I1206
F3.222554922103882
tp307
a(I4780
I2389
F7.4500510692596436
tp308
a(I16634
I8316
F22.992714881896973
tp309
a(I61760
I30879
F91.00700998306274
tp310
asg11
(lp311
(I690
I10
F0.11324000358581543
tp312
a(I5334
I510
F0.8645000457763672
tp313
a(I7550
I721
F1.1620590686798096
tp314
a(I12045
I1152
F1.8346481323242188
tp315
a(I24117
I2311
F3.8139190673828125
tp316
a(I85115
I8166
F12.811310052871704
tp317
a(I318612
I30585
F45.37873101234436
tp318
asg20
(lp319
(I2029
I195
F0.3416860103607178
tp320
a(I5334
I510
F0.8570578098297119
tp321
a(I7550
I721
F1.1479439735412598
tp322
a(I12045
I1152
F1.8607380390167236
tp323
a(I24117
I2311
F3.784022092819214
tp324
a(I85115
I8166
F12.200860977172852
tp325
a(I318612
I30585
F45.49808597564697
tp326
asg29
(lp327
(NNF1.9073486328125e-05
tp328
a(NNF1.9073486328125e-05
tp329
a(NNF1.811981201171875e-05
tp330
a(NNF2.09808349609375e-05
tp331
a(NNF2.5033950805664062e-05
tp332
a(NNF2.002716064453125e-05
tp333
a(NNF2.09808349609375e-05
tp334
asa.