(dp0
F0.5
(lp1
(I3096
I32
F1.2636330127716064
tp2
a(I3736
I44
F2.0640900135040283
tp3
a(I4062
I52
F1.94399094581604
tp4
a(I7279
I77
F3.7531399726867676
tp5
a(I2595
I27
F1.3000879287719727
tp6
a(I2721
I40
F1.3741421699523926
tp7
a(I5882
I100
F2.8371999263763428
tp8
a(I2074
I27
F1.0842490196228027
tp9
a(I11130
I135
F6.359806060791016
tp10
a(I1836
I29
F0.8859128952026367
tp11
asI1
(lp12
(I1238
I13
F0.49332308769226074
tp13
a(I1518
I18
F0.8159317970275879
tp14
a(I1537
I20
F0.7330200672149658
tp15
a(I2838
I30
F1.4389269351959229
tp16
a(I1035
I11
F0.5258960723876953
tp17
a(I1073
I16
F0.5812239646911621
tp18
a(I2274
I39
F1.1097350120544434
tp19
a(I836
I11
F0.42307519912719727
tp20
a(I4184
I51
F2.1671969890594482
tp21
a(I752
I12
F0.3640291690826416
tp22
asF0.4
(lp23
(I4356
I45
F1.9312989711761475
tp24
a(I5308
I62
F3.086474895477295
tp25
a(I5631
I72
F2.6854588985443115
tp26
a(I10299
I109
F5.320407867431641
tp27
a(I3663
I38
F1.8133790493011475
tp28
a(I3827
I56
F1.9045069217681885
tp29
a(I8308
I141
F4.022532939910889
tp30
a(I2835
I37
F1.5754361152648926
tp31
a(I15888
I192
F8.432263851165771
tp32
a(I2539
I40
F1.38468599319458
tp33
asF0.2
(lp34
(I13864
I140
F5.870577096939087
tp35
a(I17097
I194
F10.056977033615112
tp36
a(I17816
I228
F8.264613151550293
tp37
a(I32881
I347
F18.353463888168335
tp38
a(I11621
I119
F5.894553184509277
tp39
a(I12262
I174
F5.764325857162476
tp40
a(I26564
I445
F13.245917797088623
tp41
a(I9018
I116
F4.516813039779663
tp42
a(I51006
I613
F25.662439823150635
tp43
a(I8031
I125
F4.469421863555908
tp44
asF0.05
(lp45
(I191232
I1823
F84.80655193328857
tp46
a(I235082
I2520
F124.09921288490295
tp47
a(I234320
I2990
F106.55970287322998
tp48
a(I440383
I4567
F229.84981608390808
tp49
a(I151701
I1536
F72.19159483909607
tp50
a(I167975
I2266
F72.42102098464966
tp51
a(I352729
I5816
F187.4169738292694
tp52
a(I119274
I1501
F60.30264401435852
tp53
a(I675123
I8049
F330.11834502220154
tp54
a(I106135
I1616
F52.29323387145996
tp55
asF0.3
(lp56
(I6961
I71
F3.059135913848877
tp57
a(I8481
I98
F4.819585084915161
tp58
a(I8981
I115
F4.273659944534302
tp59
a(I16469
I174
F8.628638982772827
tp60
a(I5823
I60
F3.0526540279388428
tp61
a(I6094
I88
F2.979005813598633
tp62
a(I13201
I223
F6.357506990432739
tp63
a(I4553
I59
F2.528080940246582
tp64
a(I25408
I306
F13.274047136306763
tp65
a(I4022
I63
F2.1473000049591064
tp66
asF0.1
(lp67
(I49812
I490
F22.1531720161438
tp68
a(I61803
I678
F32.29261302947998
tp69
a(I62601
I801
F28.236732959747314
tp70
a(I116612
I1221
F60.603439807891846
tp71
a(I40613
I413
F19.58906078338623
tp72
a(I43996
I609
F20.39745593070984
tp73
a(I93819
I1560
F47.514484882354736
tp74
a(I31727
I404
F17.1404869556427
tp75
a(I180284
I2157
F88.13326716423035
tp76
a(I28298
I435
F17.349345922470093
tp77
as.