(dp0
F0.5
(lp1
(I3535
I40
F0.3937549591064453
tp2
a(I1714
I16
F0.13883709907531738
tp3
a(I8026
I87
F0.5858910083770752
tp4
a(I4799
I85
F0.3328230381011963
tp5
a(I1026
I24
F0.08351707458496094
tp6
a(I6592
I93
F0.4643120765686035
tp7
a(I2402
I26
F0.17911386489868164
tp8
a(I2630
I35
F0.1696639060974121
tp9
a(I6626
I77
F0.46147894859313965
tp10
a(I5360
I74
F0.4619619846343994
tp11
asI1
(lp12
(I1400
I16
F0.6117360591888428
tp13
a(I629
I6
F0.04829120635986328
tp14
a(I3117
I34
F0.2363572120666504
tp15
a(I1837
I33
F0.13679790496826172
tp16
a(I405
I10
F0.02725696563720703
tp17
a(I2607
I37
F0.1946399211883545
tp18
a(I1005
I11
F0.08036613464355469
tp19
a(I1038
I14
F0.07360506057739258
tp20
a(I2560
I30
F0.18450284004211426
tp21
a(I2069
I29
F0.26784801483154297
tp22
asF0.4
(lp23
(I4978
I56
F0.4631168842315674
tp24
a(I2367
I22
F0.15900492668151855
tp25
a(I11251
I122
F0.8296380043029785
tp26
a(I6813
I120
F0.4846940040588379
tp27
a(I1433
I33
F0.09868192672729492
tp28
a(I9185
I129
F0.6702840328216553
tp29
a(I3336
I36
F0.24599909782409668
tp30
a(I3675
I49
F0.2276749610900879
tp31
a(I9389
I109
F0.6686680316925049
tp32
a(I7512
I104
F0.6535229682922363
tp33
asF0.2
(lp34
(I15697
I175
F1.1604249477386475
tp35
a(I7338
I67
F0.4880800247192383
tp36
a(I35953
I388
F2.6271212100982666
tp37
a(I21820
I380
F1.5001368522644043
tp38
a(I4597
I102
F0.2785360813140869
tp39
a(I28876
I405
F2.0765349864959717
tp40
a(I10524
I112
F0.8010919094085693
tp41
a(I11472
I154
F0.7018771171569824
tp42
a(I29767
I344
F2.0597290992736816
tp43
a(I23922
I327
F1.938565969467163
tp44
asF0.05
(lp45
(I210311
I2279
F13.641112089157104
tp46
a(I96223
I858
F6.0068359375
tp47
a(I489592
I5073
F36.67456603050232
tp48
a(I291492
I4977
F18.389237880706787
tp49
a(I61424
I1313
F3.5301830768585205
tp50
a(I382329
I5251
F27.241251230239868
tp51
a(I138340
I1449
F10.339991092681885
tp52
a(I151072
I2000
F7.6616339683532715
tp53
a(I395419
I4520
F26.877474069595337
tp54
a(I310124
I4270
F24.535650968551636
tp55
asF0.3
(lp56
(I7822
I88
F0.6320688724517822
tp57
a(I3680
I34
F0.24491500854492188
tp58
a(I18039
I195
F1.3350319862365723
tp59
a(I10844
I190
F0.7481889724731445
tp60
a(I2253
I51
F0.14401006698608398
tp61
a(I14523
I204
F1.0361378192901611
tp62
a(I5310
I57
F0.39496397972106934
tp63
a(I5797
I77
F0.3726379871368408
tp64
a(I14964
I173
F1.0684211254119873
tp65
a(I11904
I164
F0.9875781536102295
tp66
asF0.1
(lp67
(I55689
I612
F3.856571912765503
tp68
a(I25698
I231
F1.6808278560638428
tp69
a(I127131
I1360
F9.546102046966553
tp70
a(I77195
I1333
F5.162642955780029
tp71
a(I16277
I353
F0.9808518886566162
tp72
a(I100621
I1412
F7.261472940444946
tp73
a(I36940
I390
F2.7594239711761475
tp74
a(I39972
I537
F2.184696912765503
tp75
a(I105689
I1210
F6.72505784034729
tp76
a(I83465
I1145
F6.604086875915527
tp77
as.