(dp0
F0.5
(lp1
(I550
I55
F0.17328810691833496
tp2
a(I1290
I129
F0.14293217658996582
tp3
a(I500
I50
F0.06615209579467773
tp4
a(I910
I91
F0.0919189453125
tp5
a(I870
I87
F0.09761810302734375
tp6
a(I480
I48
F0.0506589412689209
tp7
a(I1220
I122
F0.12403512001037598
tp8
a(I510
I51
F0.050256967544555664
tp9
a(I670
I67
F0.06695294380187988
tp10
a(I410
I41
F0.04287290573120117
tp11
asI1
(lp12
(I220
I22
F0.2921719551086426
tp13
a(I490
I49
F0.06472206115722656
tp14
a(I200
I20
F0.02995896339416504
tp15
a(I360
I36
F0.03766918182373047
tp16
a(I330
I33
F0.03542900085449219
tp17
a(I190
I19
F0.02002716064453125
tp18
a(I450
I45
F0.05227804183959961
tp19
a(I190
I19
F0.02070903778076172
tp20
a(I260
I26
F0.02945685386657715
tp21
a(I160
I16
F0.018640995025634766
tp22
asF0.4
(lp23
(I770
I77
F0.15119004249572754
tp24
a(I1810
I181
F0.19616103172302246
tp25
a(I700
I70
F0.08454108238220215
tp26
a(I1280
I128
F0.12640094757080078
tp27
a(I1220
I122
F0.12579798698425293
tp28
a(I680
I68
F0.06679105758666992
tp29
a(I1720
I172
F0.17548513412475586
tp30
a(I720
I72
F0.0825948715209961
tp31
a(I940
I94
F0.09413290023803711
tp32
a(I580
I58
F0.06128382682800293
tp33
asF0.2
(lp34
(I2430
I243
F0.3042590618133545
tp35
a(I5770
I577
F0.6019690036773682
tp36
a(I2200
I220
F0.23277020454406738
tp37
a(I4070
I407
F0.42211389541625977
tp38
a(I3900
I390
F0.3800182342529297
tp39
a(I2110
I211
F0.20795607566833496
tp40
a(I5480
I548
F0.6057000160217285
tp41
a(I2290
I229
F0.22863101959228516
tp42
a(I2950
I295
F0.29990315437316895
tp43
a(I1830
I183
F0.18738102912902832
tp44
asF0.05
(lp45
(I31710
I3171
F3.353487014770508
tp46
a(I75900
I7590
F7.9277260303497314
tp47
a(I28600
I2860
F3.174868106842041
tp48
a(I53460
I5346
F5.488404989242554
tp49
a(I51540
I5154
F4.970185041427612
tp50
a(I27390
I2739
F2.8163890838623047
tp51
a(I72430
I7243
F7.385134935379028
tp52
a(I29890
I2989
F2.9954049587249756
tp53
a(I38540
I3854
F3.9458041191101074
tp54
a(I23810
I2381
F2.502588987350464
tp55
asF0.3
(lp56
(I1220
I122
F0.23951005935668945
tp57
a(I2890
I289
F0.30691099166870117
tp58
a(I1110
I111
F0.12711095809936523
tp59
a(I2040
I204
F0.215162992477417
tp60
a(I1950
I195
F0.18660402297973633
tp61
a(I1070
I107
F0.10948300361633301
tp62
a(I2740
I274
F0.29254984855651855
tp63
a(I1150
I115
F0.11200594902038574
tp64
a(I1480
I148
F0.14714694023132324
tp65
a(I920
I92
F0.09501194953918457
tp66
asF0.1
(lp67
(I8510
I851
F0.938636064529419
tp68
a(I20310
I2031
F2.094982862472534
tp69
a(I7680
I768
F0.8357429504394531
tp70
a(I14310
I1431
F1.4456357955932617
tp71
a(I13770
I1377
F1.3311641216278076
tp72
a(I7370
I737
F0.7744019031524658
tp73
a(I19360
I1936
F1.9790799617767334
tp74
a(I8020
I802
F0.784904956817627
tp75
a(I10330
I1033
F1.0655930042266846
tp76
a(I6390
I639
F0.6601800918579102
tp77
as.