(dp0
F0.5
(lp1
(I26725
I30
F28.198869943618774
tp2
a(I22434
I24
F41.653687953948975
tp3
a(I27751
I31
F55.101171016693115
tp4
a(I27704
I33
F47.08467411994934
tp5
a(I22877
I23
F38.463637828826904
tp6
a(I23076
I27
F38.041589975357056
tp7
a(I28682
I32
F49.28967499732971
tp8
a(I20215
I23
F36.53153085708618
tp9
a(I31440
I37
F28.608922004699707
tp10
a(I28980
I32
F28.47637104988098
tp11
asI1
(lp12
(I10570
I12
F11.275659799575806
tp13
a(I9204
I10
F19.132643222808838
tp14
a(I11485
I13
F24.049471855163574
tp15
a(I10763
I13
F18.09319806098938
tp16
a(I8799
I9
F13.361240863800049
tp17
a(I9258
I11
F14.627569198608398
tp18
a(I11545
I13
F19.77523708343506
tp19
a(I7760
I9
F13.237473964691162
tp20
a(I12637
I15
F11.915493965148926
tp21
a(I11646
I13
F11.251430034637451
tp22
asF0.4
(lp23
(I37530
I42
F38.850614070892334
tp24
a(I31965
I34
F60.85995101928711
tp25
a(I39480
I44
F80.00901198387146
tp26
a(I38696
I46
F67.36154103279114
tp27
a(I31938
I32
F52.951704025268555
tp28
a(I31791
I37
F51.169034004211426
tp29
a(I40406
I45
F70.0494270324707
tp30
a(I28272
I32
F50.33576989173889
tp31
a(I43438
I51
F41.020052909851074
tp32
a(I39988
I44
F39.300699949264526
tp33
asF0.2
(lp34
(I117992
I131
F125.89655590057373
tp35
a(I100746
I106
F186.84504890441895
tp36
a(I125691
I138
F259.72668194770813
tp37
a(I123334
I145
F218.22309494018555
tp38
a(I99896
I99
F183.64506912231445
tp39
a(I101080
I116
F161.4987769126892
tp40
a(I127579
I141
F215.85754919052124
tp41
a(I88699
I99
F150.64986491203308
tp42
a(I138113
I161
F145.57349491119385
tp43
a(I127857
I139
F124.85613703727722
tp44
asF0.3
(lp45
(I59121
I66
F61.37065601348877
tp46
a(I50072
I53
F89.35030698776245
tp47
a(I62300
I69
F129.44111013412476
tp48
a(I61716
I73
F110.31223583221436
tp49
a(I50149
I50
F90.26746988296509
tp50
a(I51042
I59
F84.6391088962555
tp51
a(I63944
I71
F115.28216409683228
tp52
a(I44492
I50
F73.67895197868347
tp53
a(I69184
I81
F72.9932610988617
tp54
a(I63906
I70
F64.73655009269714
tp55
asF0.1
(lp56
(I415947
I458
F479.1073079109192
tp57
a(I352741
I368
F717.9832530021667
tp58
a(I444958
I483
F818.5314738750458
tp59
a(I435325
I506
F742.361307144165
tp60
a(I350508
I345
F574.7679629325867
tp61
a(I356422
I405
F590.1796429157257
tp62
a(I450688
I493
F763.4648699760437
tp63
a(I312390
I345
F2279.4285748004913
tp64
a(I486365
I563
F479.7222549915314
tp65
a(I451024
I485
F444.57406210899353
tp66
as.